
SB_Network.o:     file format elf32-littlearm

Contents of section .text:
 0000 0dc0a0e1 00d82de9 04b04ce2 40d04de2  ......-...L.@.M.
 0010 30000be5 34100be5 38200be5 3c300be5  0...4...8 ..<0..
 0020 0200a0e3 0110a0e3 0620a0e3 feffffeb  ......... ......
 0030 0030a0e1 10300be5 10301be5 000053e3  .0...0...0....S.
 0040 020000aa 0030e0e3 40300be5 6a0000ea  .....0..@0..j...
 0050 0130a0e3 2c300be5 0030a0e3 28300be5  .0..,0...0..(0..
 0060 2cc04be2 0830a0e3 00308de5 10001be5  ,.K..0...0......
 0070 0110a0e3 0d20a0e3 0c30a0e1 feffffeb  ..... ...0......
 0080 0130a0e3 24300be5 24c04be2 0430a0e3  .0..$0..$.K..0..
 0090 00308de5 10001be5 0110a0e3 0920a0e3  .0........... ..
 00a0 0c30a0e1 feffffeb 3c301be5 000053e3  .0......<0....S.
 00b0 010000ca 0430a0e3 3c300be5 3c301be5  .....0..<0..<0..
 00c0 400053e3 010000da 4030a0e3 3c300be5  @.S.....@0..<0..
 00d0 3c301be5 0335a0e1 24300be5 24c04be2  <0...5..$0..$.K.
 00e0 0430a0e3 00308de5 10001be5 0110a0e3  .0...0..........
 00f0 0720a0e3 0c30a0e1 feffffeb 04309be5  . ...0.......0..
 0100 000053e3 010000ca 0430a0e3 04308be5  ..S......0...0..
 0110 04309be5 400053e3 010000da 4030a0e3  .0..@.S.....@0..
 0120 04308be5 04309be5 0335a0e1 24300be5  .0...0...5..$0..
 0130 24c04be2 0430a0e3 00308de5 10001be5  $.K..0...0......
 0140 0110a0e3 0820a0e3 0c30a0e1 feffffeb  ..... ...0......
 0150 20304be2 0020a0e3 002083e5 043083e2   0K.. ... ...0..
 0160 0020a0e3 002083e5 043083e2 0020a0e3  . ... ...0... ..
 0170 002083e5 043083e2 0020a0e3 002083e5  . ...0... ... ..
 0180 0230a0e3 b0324be1 34301be5 0338a0e1  .0...2K.40...8..
 0190 2338a0e1 0300a0e1 feffffeb 0030a0e1  #8...........0..
 01a0 be314be1 20304be2 043083e2 0200a0e3  .1K. 0K..0......
 01b0 30101be5 0320a0e1 feffffeb 20304be2  0.... ...... 0K.
 01c0 10001be5 0310a0e1 1020a0e3 38301be5  ......... ..80..
 01d0 feffffeb 0030a0e1 000053e3 040000aa  .....0....S.....
 01e0 10001be5 feffffeb 0030e0e3 40300be5  .........0..@0..
 01f0 010000ea 10301be5 40300be5 40301be5  .....0..@0..@0..
 0200 0300a0e1 0cd04be2 00a89de8 0dc0a0e1  ......K.........
 0210 00d82de9 04b04ce2 05dd4de2 30010be5  ..-...L...M.0...
 0220 34110be5 38210be5 3c310be5 0030a0e3  4...8!..<1...0..
 0230 20300be5 30011be5 0310a0e3 0020a0e3   0..0........ ..
 0240 feffffeb 0030a0e1 1c300be5 30011be5  .....0...0..0...
 0250 0410a0e3 022ba0e3 feffffeb 30011be5  .....+......0...
 0260 34111be5 38211be5 feffffeb 0030a0e1  4...8!.......0..
 0270 18300be5 18301be5 000053e3 070000aa  .0...0....S.....
 0280 feffffeb 0030a0e1 003093e5 730053e3  .....0...0..s.S.
 0290 0200000a 0000e0e3 40010be5 8e0000ea  ........@.......
 02a0 18301be5 000053e3 6f00000a a4304be2  .0....S.o....0K.
 02b0 10300be5 0030a0e3 14300be5 060000ea  .0...0...0......
 02c0 14101be5 10201be5 0030a0e3 013182e7  ..... ...0...1..
 02d0 14301be5 013083e2 14300be5 14301be5  .0...0...0...0..
 02e0 1f0053e3 f5ffff9a 30311be5 a332a0e1  ..S.....01...2..
 02f0 0300a0e1 9720e0e3 0331a0e1 0c104be2  ..... ...1....K.
 0300 013083e0 023083e0 001093e5 30311be5  .0...0......01..
 0310 1f2003e2 0130a0e3 1332a0e1 031081e1  . ...0...2......
 0320 9720e0e3 0031a0e1 0c004be2 003083e0  . ...1....K..0..
 0330 023083e0 001083e5 493f4be2 a4204be2  .0......I?K.. K.
 0340 80c0a0e3 0300a0e1 0210a0e1 0c20a0e1  ............. ..
 0350 feffffeb 3c311be5 2c310be5 0030a0e3  ....<1..,1...0..
 0360 28310be5 30311be5 012083e2 a4104be2  (1..01... ....K.
 0370 49cf4be2 4b3f4be2 00308de5 0200a0e1  I.K.K?K..0......
 0380 0c20a0e1 0030a0e3 feffffeb 0030a0e1  . ...0.......0..
 0390 000053e3 060000aa feffffeb 0020a0e1  ..S.......... ..
 03a0 6e30a0e3 003082e5 0010e0e3 40110be5  n0...0......@...
 03b0 490000ea 30311be5 a332a0e1 9720e0e3  I...01...2... ..
 03c0 0331a0e1 0c004be2 003083e0 023083e0  .1....K..0...0..
 03d0 002093e5 30311be5 1f3003e2 5233a0e1  . ..01...0..R3..
 03e0 013003e2 ff3003e2 000053e3 0e00001a  .0...0....S.....
 03f0 30311be5 a332a0e1 ec209fe5 0331a0e1  01...2... ...1..
 0400 0c104be2 013083e0 023083e0 002093e5  ..K..0...0... ..
 0410 30311be5 1f3003e2 5233a0e1 013003e2  01...0..R3...0..
 0420 ff3003e2 000053e3 0f00000a 0430a0e3  .0....S......0..
 0430 24300be5 20c04be2 24304be2 00308de5  $0.. .K.$0K..0..
 0440 30011be5 0110a0e3 0420a0e3 0c30a0e1  0........ ...0..
 0450 feffffeb 0030a0e1 000053e3 020000aa  .....0....S.....
 0460 0030e0e3 40310be5 1b0000ea 30011be5  .0..@1......0...
 0470 0410a0e3 022ba0e3 feffffeb 20301be5  .....+...... 0..
 0480 000053e3 0600000a feffffeb 0020a0e1  ..S.......... ..
 0490 20301be5 003082e5 0000e0e3 40010be5   0...0......@...
 04a0 0d0000ea 30011be5 34111be5 38211be5  ....0...4...8!..
 04b0 feffffeb 0030a0e1 18300be5 18301be5  .....0...0...0..
 04c0 000053e3 020000aa 0010e0e3 40110be5  ..S.........@...
 04d0 010000ea 0030a0e3 40310be5 40311be5  .....0..@1..@1..
 04e0 0300a0e1 0cd04be2 00a89de8 e8feffff  ......K.........
 04f0 0dc0a0e1 00d82de9 04b04ce2 38d04de2  ......-...L.8.M.
 0500 30000be5 34100be5 38200be5 0200a0e3  0...4...8 ......
 0510 0110a0e3 0620a0e3 feffffeb 0030a0e1  ..... .......0..
 0520 10300be5 10301be5 010073e3 0400001a  .0...0....s.....
 0530 10001be5 feffffeb 0030e0e3 3c300be5  .........0..<0..
 0540 7c0000ea 0130a0e3 2c300be5 0030a0e3  |....0..,0...0..
 0550 28300be5 2cc04be2 0830a0e3 00308de5  (0..,.K..0...0..
 0560 10001be5 0110a0e3 0d20a0e3 0c30a0e1  ......... ...0..
 0570 feffffeb 0130a0e3 24300be5 24c04be2  .....0..$0..$.K.
 0580 0430a0e3 00308de5 10001be5 0110a0e3  .0...0..........
 0590 0220a0e3 0c30a0e1 feffffeb 0130a0e3  . ...0.......0..
 05a0 24300be5 24c04be2 0430a0e3 00308de5  $0..$.K..0...0..
 05b0 10001be5 0110a0e3 0920a0e3 0c30a0e1  ......... ...0..
 05c0 feffffeb 34301be5 000053e3 010000ca  ....40....S.....
 05d0 0430a0e3 34300be5 34301be5 400053e3  .0..40..40..@.S.
 05e0 010000da 4030a0e3 34300be5 34301be5  ....@0..40..40..
 05f0 0335a0e1 24300be5 24c04be2 0430a0e3  .5..$0..$.K..0..
 0600 00308de5 10001be5 0110a0e3 0720a0e3  .0........... ..
 0610 0c30a0e1 feffffeb 38301be5 000053e3  .0......80....S.
 0620 010000ca 0430a0e3 38300be5 38301be5  .....0..80..80..
 0630 400053e3 010000da 4030a0e3 38300be5  @.S.....@0..80..
 0640 38301be5 0335a0e1 24300be5 24c04be2  80...5..$0..$.K.
 0650 0430a0e3 00308de5 10001be5 0110a0e3  .0...0..........
 0660 0820a0e3 0c30a0e1 feffffeb 20304be2  . ...0...... 0K.
 0670 0020a0e3 002083e5 043083e2 0020a0e3  . ... ...0... ..
 0680 002083e5 043083e2 0020a0e3 002083e5  . ...0... ... ..
 0690 043083e2 0020a0e3 002083e5 0230a0e3  .0... ... ...0..
 06a0 b0324be1 0000a0e3 feffffeb 0030a0e1  .2K..........0..
 06b0 1c300be5 30301be5 0338a0e1 2338a0e1  .0..00...8..#8..
 06c0 0300a0e1 feffffeb 0030a0e1 be314be1  .........0...1K.
 06d0 20304be2 10001be5 0310a0e1 1020a0e3   0K.......... ..
 06e0 feffffeb 0030a0e1 000053e3 040000aa  .....0....S.....
 06f0 10001be5 feffffeb 0030e0e3 3c300be5  .........0..<0..
 0700 0c0000ea 10001be5 0110a0e3 feffffeb  ................
 0710 0030a0e1 010073e3 0400001a 10001be5  .0....s.........
 0720 feffffeb 0030e0e3 3c300be5 010000ea  .....0..<0......
 0730 10301be5 3c300be5 3c301be5 0300a0e1  .0..<0..<0......
 0740 0cd04be2 00a89de8 0dc0a0e1 00d82de9  ..K...........-.
 0750 04b04ce2 c8d04de2 c0000be5 c4100be5  ..L...M.........
 0760 c4101be5 fc319fe5 9103c3e0 4323a0e1  .....1......C#..
 0770 c13fa0e1 023063e0 a4300be5 c4101be5  .?...0c..0......
 0780 e0319fe5 9123c3e0 4323a0e1 c13fa0e1  .1...#..C#...?..
 0790 022063e0 cc200be5 cc301be5 8332a0e1  . c.. ...0...2..
 07a0 cc001be5 033060e0 0331a0e1 cc201be5  .....0`..1... ..
 07b0 023083e0 8331a0e1 011063e0 cc100be5  .0...1....c.....
 07c0 cc301be5 a0300be5 9c304be2 10300be5  .0...0...0K..0..
 07d0 0030a0e3 14300be5 060000ea 14101be5  .0...0..........
 07e0 10201be5 0030a0e3 013182e7 14301be5  . ...0...1...0..
 07f0 013083e2 14300be5 14301be5 1f0053e3  .0...0...0....S.
 0800 f5ffff9a c0301be5 a332a0e1 0300a0e1  .....0...2......
 0810 8f20e0e3 0331a0e1 0c104be2 013083e0  . ...1....K..0..
 0820 023083e0 001093e5 c0301be5 1f2003e2  .0.......0... ..
 0830 0130a0e3 1332a0e1 031081e1 8f20e0e3  .0...2....... ..
 0840 0031a0e1 0c004be2 003083e0 023083e0  .1....K..0...0..
 0850 001083e5 c0301be5 012083e2 9c104be2  .....0... ....K.
 0860 a4304be2 00308de5 0200a0e1 0020a0e3  .0K..0....... ..
 0870 0030a0e3 feffffeb 0030a0e1 18300be5  .0.......0...0..
 0880 18301be5 000053e3 0200001a 0010a0e3  .0....S.........
 0890 c8100be5 2f0000ea 18301be5 000053e3  ..../....0....S.
 08a0 020000aa 0020e0e3 c8200be5 290000ea  ..... ... ..)...
 08b0 c0301be5 a332a0e1 8f20e0e3 0331a0e1  .0...2... ...1..
 08c0 0c004be2 003083e0 023083e0 002093e5  ..K..0...0... ..
 08d0 c0301be5 1f3003e2 5233a0e1 013003e2  .0...0..R3...0..
 08e0 ff3003e2 000053e3 1800000a b8304be2  .0....S......0K.
 08f0 a8204be2 c0001be5 0310a0e1 feffffeb  . K.............
 0900 0030a0e1 1c300be5 1c301be5 010073e3  .0...0...0....s.
 0910 0200001a 0010a0e3 c8100be5 0d0000ea  ................
 0920 c0001be5 0210a0e3 feffffeb c0001be5  ................
 0930 feffffeb 1c001be5 0410a0e3 022ba0e3  .............+..
 0940 feffffeb 1c201be5 c8200be5 010000ea  ..... ... ......
 0950 0030a0e3 c8300be5 c8301be5 0300a0e1  .0...0...0......
 0960 0cd04be2 00a89de8 d34d6210 0dc0a0e1  ..K......Mb.....
 0970 00d82de9 04b04ce2 c8d04de2 c0000be5  ..-...L...M.....
 0980 c4100be5 c4101be5 e8319fe5 9103c3e0  .........1......
 0990 4323a0e1 c13fa0e1 023063e0 a4300be5  C#...?...0c..0..
 09a0 c4101be5 cc319fe5 9123c3e0 4323a0e1  .....1...#..C#..
 09b0 c13fa0e1 022063e0 cc200be5 cc301be5  .?... c.. ...0..
 09c0 8332a0e1 cc001be5 033060e0 0331a0e1  .2.......0`..1..
 09d0 cc201be5 023083e0 8331a0e1 011063e0  . ...0...1....c.
 09e0 cc100be5 cc301be5 a0300be5 9c304be2  .....0...0...0K.
 09f0 10300be5 0030a0e3 14300be5 060000ea  .0...0...0......
 0a00 14101be5 10201be5 0030a0e3 013182e7  ..... ...0...1..
 0a10 14301be5 013083e2 14300be5 14301be5  .0...0...0...0..
 0a20 1f0053e3 f5ffff9a c0301be5 a332a0e1  ..S......0...2..
 0a30 0300a0e1 8f20e0e3 0331a0e1 0c104be2  ..... ...1....K.
 0a40 013083e0 023083e0 001093e5 c0301be5  .0...0.......0..
 0a50 1f2003e2 0130a0e3 1332a0e1 031081e1  . ...0...2......
 0a60 8f20e0e3 0031a0e1 0c004be2 003083e0  . ...1....K..0..
 0a70 023083e0 001083e5 c0301be5 012083e2  .0.......0... ..
 0a80 9c104be2 a4304be2 00308de5 0200a0e1  ..K..0K..0......
 0a90 0020a0e3 0030a0e3 feffffeb 0030a0e1  . ...0.......0..
 0aa0 18300be5 18301be5 000053e3 0200001a  .0...0....S.....
 0ab0 0010a0e3 c8100be5 2a0000ea 18301be5  ........*....0..
 0ac0 000053e3 020000aa 0020e0e3 c8200be5  ..S...... ... ..
 0ad0 240000ea c0301be5 a332a0e1 8f20e0e3  $....0...2... ..
 0ae0 0331a0e1 0c004be2 003083e0 023083e0  .1....K..0...0..
 0af0 002093e5 c0301be5 1f3003e2 5233a0e1  . ...0...0..R3..
 0b00 013003e2 ff3003e2 000053e3 1300000a  .0...0....S.....
 0b10 b8304be2 a8204be2 c0001be5 0310a0e1  .0K.. K.........
 0b20 feffffeb 0030a0e1 1c300be5 1c301be5  .....0...0...0..
 0b30 010073e3 0200001a 0010a0e3 c8100be5  ..s.............
 0b40 080000ea 1c001be5 0410a0e3 022ba0e3  .............+..
 0b50 feffffeb 1c201be5 c8200be5 010000ea  ..... ... ......
 0b60 0030a0e3 c8300be5 c8301be5 0300a0e1  .0...0...0......
 0b70 0cd04be2 00a89de8 d34d6210 0dc0a0e1  ..K......Mb.....
 0b80 00d82de9 04b04ce2 b0d04de2 a8000be5  ..-...L...M.....
 0b90 ac100be5 b0200be5 a4304be2 10300be5  ..... ...0K..0..
 0ba0 0030a0e3 14300be5 060000ea 14101be5  .0...0..........
 0bb0 10201be5 0030a0e3 013182e7 14301be5  . ...0...1...0..
 0bc0 013083e2 14300be5 14301be5 1f0053e3  .0...0...0....S.
 0bd0 f5ffff9a a8301be5 a332a0e1 0300a0e1  .....0...2......
 0be0 9720e0e3 0331a0e1 0c104be2 013083e0  . ...1....K..0..
 0bf0 023083e0 001093e5 a8301be5 1f2003e2  .0.......0... ..
 0c00 0130a0e3 1332a0e1 031081e1 9720e0e3  .0...2....... ..
 0c10 0031a0e1 0c004be2 003083e0 023083e0  .1....K..0...0..
 0c20 001083e5 0030a0e3 24300be5 0130a0e3  .....0..$0...0..
 0c30 20300be5 a8301be5 012083e2 a4104be2   0...0... ....K.
 0c40 24304be2 00308de5 0200a0e1 0020a0e3  $0K..0....... ..
 0c50 0030a0e3 feffffeb 0030a0e1 18300be5  .0.......0...0..
 0c60 18301be5 000053e3 0200001a 0010a0e3  .0....S.........
 0c70 b4100be5 1a0000ea 18301be5 000053e3  .........0....S.
 0c80 020000aa 0030e0e3 b4300be5 140000ea  .....0...0......
 0c90 b0301be5 a8001be5 ac101be5 0320a0e1  .0........... ..
 0ca0 feffffeb 0030a0e1 1c300be5 1c301be5  .....0...0...0..
 0cb0 000053e3 020000aa 0000a0e3 b4000be5  ..S.............
 0cc0 070000ea 1c301be5 000053e3 0200001a  .....0....S.....
 0cd0 0010e0e3 b4100be5 010000ea 1c301be5  .............0..
 0ce0 b4300be5 b4301be5 0300a0e1 0cd04be2  .0...0........K.
 0cf0 00a89de8 0dc0a0e1 00d82de9 04b04ce2  ..........-...L.
 0d00 08d04de2 10000be5 10001be5 0210a0e3  ..M.............
 0d10 feffffeb 10001be5 feffffeb 0cd04be2  ..............K.
 0d20 00a89de8 0dc0a0e1 00d82de9 04b04ce2  ..........-...L.
 0d30 20d04de2 28000be5 0200a0e3 0210a0e3   .M.(...........
 0d40 1120a0e3 feffffeb 0030a0e1 10300be5  . .......0...0..
 0d50 10301be5 010073e3 0400001a 8c009fe5  .0....s.........
 0d60 feffffeb 0030a0e3 2c300be5 1b0000ea  .....0..,0......
 0d70 0230a0e3 b0324be1 28301be5 0338a0e1  .0...2K.(0...8..
 0d80 2338a0e1 0300a0e1 feffffeb 0030a0e1  #8...........0..
 0d90 be314be1 0030a0e3 1c300be5 20304be2  .1K..0...0.. 0K.
 0da0 10001be5 0310a0e1 1020a0e3 feffffeb  ......... ......
 0db0 0030a0e1 000053e3 0600000a 30009fe5  .0....S.....0...
 0dc0 feffffeb 10001be5 feffffeb 0030a0e3  .............0..
 0dd0 2c300be5 010000ea 10301be5 2c300be5  ,0.......0..,0..
 0de0 2c301be5 0300a0e1 0cd04be2 00a89de8  ,0........K.....
 0df0 00000000 08000000 0dc0a0e1 00d82de9  ..............-.
 0e00 04b04ce2 b8d04de2 a8000be5 ac100be5  ..L...M.........
 0e10 b0200be5 a0304be2 10300be5 0030a0e3  . ...0K..0...0..
 0e20 14300be5 060000ea 14101be5 10201be5  .0........... ..
 0e30 0030a0e3 013182e7 14301be5 013083e2  .0...1...0...0..
 0e40 14300be5 14301be5 1f0053e3 f5ffff9a  .0...0....S.....
 0e50 a8301be5 a332a0e1 0300a0e1 9320e0e3  .0...2....... ..
 0e60 0331a0e1 0c104be2 013083e0 023083e0  .1....K..0...0..
 0e70 001093e5 a8301be5 1f2003e2 0130a0e3  .....0... ...0..
 0e80 1332a0e1 031081e1 9320e0e3 0031a0e1  .2....... ...1..
 0e90 0c004be2 003083e0 023083e0 001083e5  ..K..0...0......
 0ea0 0030a0e3 20300be5 0130a0e3 1c300be5  .0.. 0...0...0..
 0eb0 a8301be5 012083e2 a0104be2 20304be2  .0... ....K. 0K.
 0ec0 00308de5 0200a0e1 0020a0e3 0030a0e3  .0....... ...0..
 0ed0 feffffeb 0030a0e1 18300be5 18101be5  .....0...0......
 0ee0 b8100be5 b8301be5 010073e3 0300000a  .....0....s.....
 0ef0 b8001be5 000050e3 0300000a 050000ea  ......P.........
 0f00 0010e0e3 b4100be5 230000ea 0030a0e3  ........#....0..
 0f10 b4300be5 200000ea a8301be5 a332a0e1  .0.. ....0...2..
 0f20 9320e0e3 0331a0e1 0c004be2 003083e0  . ...1....K..0..
 0f30 023083e0 002093e5 a8301be5 1f3003e2  .0... ...0...0..
 0f40 5233a0e1 013003e2 ff3003e2 000053e3  R3...0...0....S.
 0f50 0f00000a 1030a0e3 a4300be5 b0201be5  .....0...0... ..
 0f60 44309fe5 00308de5 a4304be2 04308de5  D0...0...0K..0..
 0f70 a8001be5 ac101be5 0030a0e3 feffffeb  .........0......
 0f80 0030a0e1 18300be5 18101be5 b4100be5  .0...0..........
 0f90 010000ea 0030a0e3 b4300be5 b4301be5  .....0...0...0..
 0fa0 0300a0e1 0cd04be2 00a89de8 00000000  ......K.........
 0fb0 0dc0a0e1 00d82de9 04b04ce2 18d04de2  ......-...L...M.
 0fc0 10000be5 14100be5 18200be5 18301be5  ......... ...0..
 0fd0 24209fe5 00208de5 1020a0e3 04208de5  $ ... ... ... ..
 0fe0 10001be5 14101be5 0320a0e1 0030a0e3  ......... ...0..
 0ff0 feffffeb 0cd04be2 00a89de8 00000000  ......K.........
 1000 0dc0a0e1 00d82de9 04b04ce2 28d04de2  ......-...L.(.M.
 1010 20000be5 24100be5 28200be5 2c300be5   ...$...( ..,0..
 1020 0230a0e3 bc314be1 04309be5 0338a0e1  .0...1K..0...8..
 1030 2338a0e1 0300a0e1 feffffeb 0030a0e1  #8...........0..
 1040 ba314be1 2c001be5 feffffeb 0030a0e1  .1K.,........0..
 1050 18300be5 18301be5 010073e3 0900000a  .0...0....s.....
 1060 28301be5 1c204be2 00208de5 1020a0e3  (0... K.. ... ..
 1070 04208de5 20001be5 24101be5 0320a0e1  . .. ...$.... ..
 1080 0030a0e3 feffffeb 0cd04be2 00a89de8  .0........K.....
 1090 0dc0a0e1 00d82de9 04b04ce2 38d04de2  ......-...L.8.M.
 10a0 40000be5 0030a0e3 14300be5 0200a0e3  @....0...0......
 10b0 0210a0e3 0020a0e3 feffffeb 0030a0e1  ..... .......0..
 10c0 18300be5 18301be5 000053e3 100000ba  .0...0....S.....
 10d0 38304be2 0300a0e1 40101be5 feffffeb  80K.....@.......
 10e0 38304be2 18001be5 34109fe5 0320a0e1  80K.....4.... ..
 10f0 feffffeb 38304be2 103083e2 10300be5  ....80K..0...0..
 1100 10301be5 043093e5 14300be5 18001be5  .0...0...0......
 1110 feffffeb 14301be5 0300a0e1 0cd04be2  .....0........K.
 1120 00a89de8 15890000 0dc0a0e1 00d82de9  ..............-.
 1130 04b04ce2 38d04de2 40000be5 0030a0e3  ..L.8.M.@....0..
 1140 14300be5 0200a0e3 0210a0e3 0020a0e3  .0........... ..
 1150 feffffeb 0030a0e1 18300be5 18301be5  .....0...0...0..
 1160 000053e3 100000ba 38304be2 0300a0e1  ..S.....80K.....
 1170 40101be5 feffffeb 38304be2 18001be5  @.......80K.....
 1180 34109fe5 0320a0e1 feffffeb 38304be2  4.... ......80K.
 1190 103083e2 10300be5 10301be5 043093e5  .0...0...0...0..
 11a0 14300be5 18001be5 feffffeb 14301be5  .0...........0..
 11b0 0300a0e1 0cd04be2 00a89de8 1b890000  ......K.........
 11c0 0dc0a0e1 00d82de9 04b04ce2 52df4de2  ......-...L.R.M.
 11d0 0030a0e3 18300be5 0030a0e3 38310be5  .0...0...0..81..
 11e0 64019fe5 64119fe5 feffffeb 0030a0e1  d...d........0..
 11f0 14300be5 480000ea 18301be5 000053e3  .0..H....0....S.
 1200 4200000a 0030a0e3 10300be5 020000ea  B....0...0......
 1210 10301be5 013083e2 10300be5 10301be5  .0...0...0...0..
 1220 2c219fe5 0c104be2 033081e0 023083e0  ,!....K..0...0..
 1230 0030d3e5 200053e3 0f00000a 10301be5  .0.. .S......0..
 1240 0c219fe5 0c104be2 033081e0 023083e0  .!....K..0...0..
 1250 0030d3e5 090053e3 0700000a 10301be5  .0....S......0..
 1260 ec209fe5 0c104be2 033081e0 023083e0  . ....K..0...0..
 1270 0030d3e5 000053e3 e4ffff1a 10301be5  .0....S......0..
 1280 cc209fe5 0c104be2 033081e0 022083e0  . ....K..0... ..
 1290 0030a0e3 0030c2e5 10301be5 0320a0e1  .0...0...0... ..
 12a0 463f4be2 023083e0 012083e2 13ce4be2  F?K..0... ....K.
 12b0 4eef4be2 123e4be2 00308de5 493f4be2  N.K..>K..0..I?K.
 12c0 04308de5 4a3f4be2 08308de5 4b3f4be2  .0..J?K..0..K?K.
 12d0 0c308de5 4d3f4be2 10308de5 0200a0e1  .0..M?K..0......
 12e0 70109fe5 0c20a0e1 0e30a0e1 feffffeb  p.... ...0......
 12f0 0030a0e1 070053e3 0f00001a 30311be5  .0....S.....01..
 1300 1c310be5 1c311be5 000053e3 0a00000a  .1...1....S.....
 1310 18301be5 013083e2 18300be5 463f4be2  .0...0...0..F?K.
 1320 0300a0e1 011ca0e3 14201be5 feffffeb  ......... ......
 1330 0030a0e1 000053e3 aeffff1a 38311be5  .0....S.....81..
 1340 0300a0e1 0cd04be2 00a89de8 14000000  ......K.........
 1350 24000000 f4feffff 28000000           $.......(...    
Contents of section .debug_abbrev:
 0000 01110110 06120111 01250813 0b03081b  .........%......
 0010 08000002 16000308 3a0b3b0b 49130000  ........:.;.I...
 0020 03240003 0e0b0b3e 0b000004 24000308  .$.....>....$...
 0030 0b0b3e0b 0000050f 000b0b00 00060f00  ..>.............
 0040 0b0b4913 00000713 01011303 0e0b0b3a  ..I............:
 0050 0b3b0b00 00080d00 03083a0b 3b054913  .;........:.;.I.
 0060 380a0000 09160003 083a0b3b 0b00000a  8........:.;....
 0070 13010113 03080b0b 3a0b3b0b 00000b0d  ........:.;.....
 0080 0003083a 0b3b0b49 13380a00 000c0101  ...:.;.I.8......
 0090 01134913 00000d21 0049132f 0b00000e  ..I....!.I./....
 00a0 13010113 0b0b3a0b 3b0b0000 0f130101  ......:.;.......
 00b0 1303080b 0b3a0b3b 05000010 17010113  .....:.;........
 00c0 0b0b3a0b 3b0b0000 110d0003 083a0b3b  ..:.;........:.;
 00d0 0b491300 00122e01 01133f0c 03083a0b  .I........?...:.
 00e0 3b0b270c 49131101 12014006 00001305  ;.'.I.....@.....
 00f0 0003083a 0b3b0b49 13020a00 00140500  ...:.;.I........
 0100 030e3a0b 3b0b4913 020a0000 15340003  ..:.;.I......4..
 0110 083a0b3b 0b491302 0a000016 0a000308  .:.;.I..........
 0120 3a0b3b0b 11010000 170b0111 01120100  :.;.............
 0130 00183400 030e3a0b 3b0b4913 020a0000  ..4...:.;.I.....
 0140 192e0101 133f0c03 083a0b3b 05270c11  .....?...:.;.'..
 0150 01120140 0600001a 05000308 3a0b3b05  ...@........:.;.
 0160 4913020a 00001b2e 0101133f 0c03083a  I..........?...:
 0170 0b3b0527 0c491311 01120140 0600001c  .;.'.I.....@....
 0180 0500030e 3a0b3b05 4913020a 00001d34  ....:.;.I......4
 0190 0003083a 0b3b0549 13020a00 001e3400  ...:.;.I......4.
 01a0 030e3a0b 3b054913 020a0000 1f2e0101  ..:.;.I.........
 01b0 133f0c03 083a0b3b 05491311 01120140  .?...:.;.I.....@
 01c0 06000020 34000308 3a0b3b0b 49133f0c  ... 4...:.;.I.?.
 01d0 020a0000 00                          .....           
Contents of section .debug_info:
 0000 67110000 02000000 00000401 00000000  g...............
 0010 5c130000 00000000 474e5520 4320342e  \.......GNU C 4.
 0020 312e3100 0153425f 4e657477 6f726b2e  1.1..SB_Network.
 0030 63002f68 6f6d652f 574f524b 2f656464  c./home/WORK/edd
 0040 792d3235 2f66696c 65737973 74656d5f  y-25/filesystem_
 0050 322e352e 312e322f 7372632f 45646479  2.5.1.2/src/Eddy
 0060 5f415050 732f5342 5f415049 73000273  _APPs/SB_APIs..s
 0070 697a655f 74000cd6 7c000000 03330000  ize_t...|....3..
 0080 00040704 756e7369 676e6564 20636861  ....unsigned cha
 0090 72000108 0473686f 72742075 6e736967  r....short unsig
 00a0 6e656420 696e7400 0207046c 6f6e6720  ned int....long 
 00b0 756e7369 676e6564 20696e74 00040704  unsigned int....
 00c0 7369676e 65642063 68617200 01060473  signed char....s
 00d0 686f7274 20696e74 00020504 696e7400  hort int....int.
 00e0 0405046c 6f6e6720 6c6f6e67 20696e74  ...long long int
 00f0 00080504 6c6f6e67 206c6f6e 6720756e  ....long long un
 0100 7369676e 65642069 6e740008 07025f5f  signed int....__
 0110 71756164 5f740006 3be20000 00025f5f  quad_t..;.....__
 0120 6f66665f 74000690 2c010000 046c6f6e  off_t...,....lon
 0130 6720696e 74000405 025f5f6f 66663634  g int....__off64
 0140 5f740006 910d0100 00033300 00000407  _t........3.....
 0150 025f5f74 696d655f 74000698 2c010000  .__time_t...,...
 0160 025f5f73 75736563 6f6e6473 5f740006  .__suseconds_t..
 0170 9a2c0100 00050402 5f5f6361 6464725f  .,......__caddr_
 0180 740006bd 88010000 06048e01 00000463  t..............c
 0190 68617200 0108025f 5f736f63 6b6c656e  har....__socklen
 01a0 5f740006 c37c0000 00024649 4c45000a  _t...|....FILE..
 01b0 2eb50100 00073004 00001000 0000980a  ......0.........
 01c0 2e085f66 6c616773 000b0c01 db000000  .._flags........
 01d0 02230008 5f494f5f 72656164 5f707472  .#.._IO_read_ptr
 01e0 000b1101 88010000 02230408 5f494f5f  .........#.._IO_
 01f0 72656164 5f656e64 000b1201 88010000  read_end........
 0200 02230808 5f494f5f 72656164 5f626173  .#.._IO_read_bas
 0210 65000b13 01880100 0002230c 085f494f  e.........#.._IO
 0220 5f777269 74655f62 61736500 0b140188  _write_base.....
 0230 01000002 2310085f 494f5f77 72697465  ....#.._IO_write
 0240 5f707472 000b1501 88010000 02231408  _ptr.........#..
 0250 5f494f5f 77726974 655f656e 64000b16  _IO_write_end...
 0260 01880100 00022318 085f494f 5f627566  ......#.._IO_buf
 0270 5f626173 65000b17 01880100 0002231c  _base.........#.
 0280 085f494f 5f627566 5f656e64 000b1801  ._IO_buf_end....
 0290 88010000 02232008 5f494f5f 73617665  .....# ._IO_save
 02a0 5f626173 65000b1a 01880100 00022324  _base.........#$
 02b0 085f494f 5f626163 6b75705f 62617365  ._IO_backup_base
 02c0 000b1b01 88010000 02232808 5f494f5f  .........#(._IO_
 02d0 73617665 5f656e64 000b1c01 88010000  save_end........
 02e0 02232c08 5f6d6172 6b657273 000b1e01  .#,._markers....
 02f0 81040000 02233008 5f636861 696e000b  .....#0._chain..
 0300 20018704 00000223 34085f66 696c656e   ......#4._filen
 0310 6f000b22 01db0000 00022338 085f666c  o.."......#8._fl
 0320 61677332 000b2601 db000000 02233c08  ags2..&......#<.
 0330 5f6f6c64 5f6f6666 73657400 0b28011d  _old_offset..(..
 0340 01000002 2340085f 6375725f 636f6c75  ....#@._cur_colu
 0350 6d6e000b 2c019400 00000223 44085f76  mn..,......#D._v
 0360 7461626c 655f6f66 66736574 000b2d01  table_offset..-.
 0370 bf000000 02234608 5f73686f 72746275  .....#F._shortbu
 0380 66000b2e 018d0400 00022347 085f6c6f  f.........#G._lo
 0390 636b000b 32019d04 00000223 48085f6f  ck..2......#H._o
 03a0 66667365 74000b3b 01380100 00022350  ffset..;.8....#P
 03b0 085f5f70 61643100 0b440175 01000002  .__pad1..D.u....
 03c0 2358085f 5f706164 32000b45 01750100  #X.__pad2..E.u..
 03d0 0002235c 085f5f70 61643300 0b460175  ..#\.__pad3..F.u
 03e0 01000002 2360085f 5f706164 34000b47  ....#`.__pad4..G
 03f0 01750100 00022364 085f5f70 61643500  .u....#d.__pad5.
 0400 0b48016e 00000002 2368085f 6d6f6465  .H.n....#h._mode
 0410 000b4a01 db000000 02236c08 5f756e75  ..J......#l._unu
 0420 73656432 000b4c01 a3040000 02237000  sed2..L......#p.
 0430 095f494f 5f6c6f63 6b5f7400 0bb00a81  ._IO_lock_t.....
 0440 0400005f 494f5f6d 61726b65 72000c0b  ..._IO_marker...
 0450 b60b5f6e 65787400 0bb78104 00000223  .._next........#
 0460 000b5f73 62756600 0bb88704 00000223  .._sbuf........#
 0470 040b5f70 6f73000b bcdb0000 00022308  .._pos........#.
 0480 0006043e 04000006 04b50100 000c9d04  ...>............
 0490 00008e01 00000d49 01000000 00060430  .......I.......0
 04a0 0400000c b3040000 8e010000 0d490100  .............I..
 04b0 0027000a e7040000 74696d65 76616c00  .'......timeval.
 04c0 0808460b 74765f73 65630008 47500100  ..F.tv_sec..GP..
 04d0 00022300 0b74765f 75736563 00084860  ..#..tv_usec..H`
 04e0 01000002 23040002 5f5f6664 5f6d6173  ....#...__fd_mas
 04f0 6b000737 2c010000 0e160500 00800744  k..7,..........D
 0500 0b5f5f66 64735f62 69747300 074b1605  .__fds_bits..K..
 0510 00000223 00000c26 050000e7 0400000d  ...#...&........
 0520 49010000 1f000266 645f7365 7400074e  I......fd_set..N
 0530 f8040000 02736f63 6b6c656e 5f740005  .....socklen_t..
 0540 24960100 00027361 5f66616d 696c795f  $.....sa_family_
 0550 7400031d 94000000 0a900500 00736f63  t............soc
 0560 6b616464 72001005 920b7361 5f66616d  kaddr.....sa_fam
 0570 696c7900 05934505 00000223 000b7361  ily...E....#..sa
 0580 5f646174 61000594 90050000 02230200  _data........#..
 0590 0ca00500 008e0100 000d4901 00000d00  ..........I.....
 05a0 0fd80500 006c696e 67657200 08053b01  .....linger...;.
 05b0 086c5f6f 6e6f6666 00053c01 db000000  .l_onoff..<.....
 05c0 02230008 6c5f6c69 6e676572 00053d01  .#..l_linger..=.
 05d0 db000000 02230400 0275696e 7431365f  .....#...uint16_
 05e0 74000432 94000000 0275696e 7433325f  t..2.....uint32_
 05f0 74000434 7c000000 02696e5f 706f7274  t..4|....in_port
 0600 5f740002 5cd80500 0002696e 5f616464  _t..\.....in_add
 0610 725f7400 0288e805 00000a3c 06000069  r_t........<...i
 0620 6e5f6164 64720004 028a0b73 5f616464  n_addr.....s_add
 0630 7200028b 09060000 02230000 0a9f0600  r........#......
 0640 00736f63 6b616464 725f696e 001002dc  .sockaddr_in....
 0650 0b73696e 5f66616d 696c7900 02dd4505  .sin_family...E.
 0660 00000223 000b7369 6e5f706f 72740002  ...#..sin_port..
 0670 def80500 00022302 0b73696e 5f616464  ......#..sin_add
 0680 720002df 1a060000 0223040b 73696e5f  r........#..sin_
 0690 7a65726f 0002e59f 06000002 2308000c  zero........#...
 06a0 af060000 83000000 0d490100 00070006  .........I......
 06b0 04580500 000cc506 00008e01 00000d49  .X.............I
 06c0 010000ff 000a3907 00006966 6d617000  ......9...ifmap.
 06d0 1009710b 6d656d5f 73746172 74000972  ..q.mem_start..r
 06e0 aa000000 0223000b 6d656d5f 656e6400  .....#..mem_end.
 06f0 0973aa00 00000223 040b6261 73655f61  .s.....#..base_a
 0700 64647200 09749400 00000223 080b6972  ddr..t.....#..ir
 0710 71000975 83000000 02230a0b 646d6100  q..u.....#..dma.
 0720 09768300 00000223 0b0b706f 72740009  .v.....#..port..
 0730 77830000 0002230c 00105307 00001009  w.....#...S.....
 0740 84116966 726e5f6e 616d6500 09855307  ..ifrn_name...S.
 0750 0000000c 63070000 8e010000 0d490100  ....c........I..
 0760 000f0010 4a080000 10098911 69667275  ....J.......ifru
 0770 5f616464 7200098a 58050000 11696672  _addr...X....ifr
 0780 755f6473 74616464 7200098b 58050000  u_dstaddr...X...
 0790 11696672 755f6272 6f616461 64647200  .ifru_broadaddr.
 07a0 098c5805 00001169 6672755f 6e65746d  ..X....ifru_netm
 07b0 61736b00 098d5805 00001169 6672755f  ask...X....ifru_
 07c0 68776164 64720009 8e580500 00116966  hwaddr...X....if
 07d0 72755f66 6c616773 00098fce 00000011  ru_flags........
 07e0 69667275 5f697661 6c756500 0990db00  ifru_ivalue.....
 07f0 00001169 6672755f 6d747500 0991db00  ...ifru_mtu.....
 0800 00001169 6672755f 6d617000 0992c506  ...ifru_map.....
 0810 00001169 6672755f 736c6176 65000993  ...ifru_slave...
 0820 53070000 11696672 755f6e65 776e616d  S....ifru_newnam
 0830 65000994 53070000 11696672 755f6461  e...S....ifru_da
 0840 74610009 95770100 00000a7f 08000069  ta...w.........i
 0850 66726571 00200980 0b696672 5f696672  freq. ...ifr_ifr
 0860 6e000986 39070000 0223000b 6966725f  n...9....#..ifr_
 0870 69667275 00099663 07000002 23100012  ifru...c....#...
 0880 3d090000 0153425f 436f6e6e 65637454  =....SB_ConnectT
 0890 63700001 1001db00 00000000 00000c02  cp..............
 08a0 00000000 00001349 505f6164 64726573  .......IP_addres
 08b0 7300010f 88010000 02914c14 00000000  s.........L.....
 08c0 010f7c00 00000291 48141900 0000010f  ..|.....H.......
 08d0 db000000 02914413 54785f53 697a6500  ......D.Tx_Size.
 08e0 010fdb00 00000291 40135278 5f53697a  ........@.Rx_Siz
 08f0 6500010f db000000 02910015 73657276  e...........serv
 0900 61646472 0001113c 06000002 915c1566  addr...<.....\.f
 0910 64000112 db000000 02916c15 6f70745f  d.........l.opt_
 0920 76616c00 0112db00 00000291 58156c69  val.........X.li
 0930 6e670001 13a00500 00029150 0012420a  ng.........P..B.
 0940 00000153 425f4368 65636b43 6f6e6e65  ...SB_CheckConne
 0950 63740001 3701db00 00000c02 0000f004  ct..7...........
 0960 00002a00 00001366 64000135 db000000  ..*....fd..5....
 0970 0391cc7d 13736170 74720001 35af0600  ...}.saptr..5...
 0980 000391c8 7d137361 6c656e00 01353405  ....}.salen..54.
 0990 00000391 c47d1419 00000001 352c0100  .....}......5,..
 09a0 000391c0 7d15666c 61677300 0138db00  ....}.flags..8..
 09b0 00000291 60156e00 0138db00 00000291  ....`.n..8......
 09c0 64156572 726f7200 0138db00 00000291  d.error..8......
 09d0 5c156c65 6e000139 34050000 02915815  \.len..94.....X.
 09e0 72736574 00013a26 05000003 91d87e15  rset..:&......~.
 09f0 77736574 00013a26 05000003 91d87d15  wset..:&......}.
 0a00 7476616c 00013bb3 04000003 91d07d16  tval..;.......}.
 0a10 646f6e65 0001546c 04000017 ac020000  done..Tl........
 0a20 e8020000 155f5f69 0001447c 00000002  .....__i..D|....
 0a30 9168180a 00000001 44420a00 0002916c  .h......DB.....l
 0a40 00000604 26050000 12dd0a00 00015342  ....&.........SB
 0a50 5f4c6973 74656e54 63700001 6601db00  _ListenTcp..f...
 0a60 0000f004 00004807 00005400 00001400  ......H...T.....
 0a70 00000001 657c0000 0002914c 1354785f  ....e|.....L.Tx_
 0a80 53697a65 000165db 00000002 91481352  Size..e......H.R
 0a90 785f5369 7a650001 65db0000 00029144  x_Size..e......D
 0aa0 15666400 0167db00 00000291 6c157376  .fd..g......l.sv
 0ab0 72000168 3c060000 02915c15 6f70745f  r..h<.....\.opt_
 0ac0 76616c00 0169db00 00000291 58156c69  val..i......X.li
 0ad0 6e670001 6aa00500 00029150 0012ae0b  ng..j......P....
 0ae0 00000153 425f4163 63657074 54637000  ...SB_AcceptTcp.
 0af0 019f01db 00000048 0700006c 0900007e  .......H...l...~
 0b00 00000013 66640001 9edb0000 000391bc  ....fd..........
 0b10 7e136d73 65630001 9edb0000 000391b8  ~.msec..........
 0b20 7e156c66 645f7365 740001a0 26050000  ~.lfd_set...&...
 0b30 0391e07e 156e6577 5f666400 01a1db00  ...~.new_fd.....
 0b40 00000291 60182200 000001a2 b3040000  ....`.".........
 0b50 0391d87e 15736f63 5f6c656e 0001a334  ...~.soc_len...4
 0b60 05000003 91d47e15 636c6965 6e740001  ......~.client..
 0b70 a43c0600 000391c4 7e157265 740001a5  .<......~.ret...
 0b80 db000000 02916417 c8070000 04080000  ......d.........
 0b90 155f5f69 0001a97c 00000002 9168180a  .__i...|.....h..
 0ba0 00000001 a9420a00 0002916c 00001284  .....B.....l....
 0bb0 0c000001 53425f41 63636570 74546370  ....SB_AcceptTcp
 0bc0 4d756c74 690001c2 01db0000 006c0900  Multi........l..
 0bd0 007c0b00 00a80000 00136664 0001c1db  .|........fd....
 0be0 00000003 91bc7e13 6d736563 0001c1db  ......~.msec....
 0bf0 00000003 91b87e15 6c66645f 73657400  ......~.lfd_set.
 0c00 01c32605 00000391 e07e156e 65775f66  ..&......~.new_f
 0c10 640001c4 db000000 02916018 22000000  d.........`."...
 0c20 01c5b304 00000391 d87e1573 6f635f6c  .........~.soc_l
 0c30 656e0001 c6340500 000391d4 7e15636c  en...4......~.cl
 0c40 69656e74 0001c73c 06000003 91c47e15  ient...<......~.
 0c50 72657400 01c8db00 00000291 6417ec09  ret.........d...
 0c60 0000280a 0000155f 5f690001 cc7c0000  ..(....__i...|..
 0c70 00029168 180a0000 0001cc42 0a000002  ...h.......B....
 0c80 916c0000 12400d00 00015342 5f526561  .l...@....SB_Rea
 0c90 64546370 0001e501 db000000 7c0b0000  dTcp........|...
 0ca0 f40c0000 d2000000 13666400 01e4db00  .........fd.....
 0cb0 00000391 d47e1362 75666600 01e48801  .....~.buff.....
 0cc0 00000391 d07e1362 7566665f 73697a65  .....~.buff_size
 0cd0 0001e4db 00000003 91cc7e18 22000000  ..........~."...
 0ce0 01e6b304 00000291 58157265 61646162  ........X.readab
 0cf0 6c650001 e7260500 000391d8 7e156c65  le...&......~.le
 0d00 6e0001e8 db000000 02916015 72657400  n.........`.ret.
 0d10 01e8db00 00000291 6417980b 0000d40b  ........d.......
 0d20 0000155f 5f690001 ea7c0000 00029168  ...__i...|.....h
 0d30 180a0000 0001ea42 0a000002 916c0000  .......B.....l..
 0d40 19710d00 00015342 5f436c6f 73655463  .q....SB_CloseTc
 0d50 70000105 0101f40c 0000240d 0000fc00  p.........$.....
 0d60 00001a66 64000104 01db0000 0002916c  ...fd..........l
 0d70 001bc70d 00000153 425f4269 6e645564  .......SB_BindUd
 0d80 7000010b 0101db00 0000240d 0000f80d  p.........$.....
 0d90 00002601 00001c00 00000001 0a017c00  ..&...........|.
 0da0 00000291 541d6664 00010c01 db000000  ....T.fd........
 0db0 02916c1d 6d795f61 64647200 010d013c  ..l.my_addr....<
 0dc0 06000002 915c001b 900e0000 0153425f  .....\.......SB_
 0dd0 52656164 55647000 01230101 db000000  ReadUdp..#......
 0de0 f80d0000 b00f0000 50010000 1a666400  ........P....fd.
 0df0 012201db 00000003 91d47e1a 62756666  ."........~.buff
 0e00 00012201 88010000 0391d07e 1a627566  .."........~.buf
 0e10 6665725f 73697a65 00012201 db000000  fer_size..".....
 0e20 0391cc7e 1d726574 00012401 db000000  ...~.ret..$.....
 0e30 0291641d 74760001 2501b304 00000291  ..d.tv..%.......
 0e40 5c1d7266 64730001 26012605 00000391  \.rfds..&.&.....
 0e50 dc7e1d44 4553545f 4c454e00 01270134  .~.DEST_LEN..'.4
 0e60 05000003 91d87e17 140e0000 500e0000  ......~.....P...
 0e70 1d5f5f69 00012901 7c000000 0291681e  .__i..).|.....h.
 0e80 0a000000 01290142 0a000002 916c0000  .....).B.....l..
 0e90 19e50e00 00015342 5f53656e 64556470  ......SB_SendUdp
 0ea0 53657276 65720001 400101b0 0f000000  Server..@.......
 0eb0 1000007a 0100001a 66640001 3f01db00  ...z....fd..?...
 0ec0 00000291 6c1a6275 66660001 3f018801  ....l.buff..?...
 0ed0 00000291 681a6c65 6e00013f 01db0000  ....h.len..?....
 0ee0 00029164 0019750f 00000153 425f5365  ...d..u....SB_Se
 0ef0 6e645564 70436c69 656e7400 01450101  ndUdpClient..E..
 0f00 00100000 90100000 a4010000 1a666400  .............fd.
 0f10 014401db 00000002 915c1a62 75666600  .D.......\.buff.
 0f20 01440188 01000002 91581a6c 656e0001  .D.......X.len..
 0f30 4401db00 00000291 541a5365 72766572  D.......T.Server
 0f40 49500001 44018801 00000291 501a5365  IP..D.......P.Se
 0f50 72766572 506f7274 00014401 db000000  rverPort..D.....
 0f60 0291001d 73616464 72000146 013c0600  ....saddr..F.<..
 0f70 00029160 001be50f 00000153 425f4765  ...`.......SB_Ge
 0f80 74497000 01500101 7c000000 90100000  tIp..P..|.......
 0f90 28110000 ce010000 1c2a0000 00014f01  (........*....O.
 0fa0 88010000 0391bc7f 1d666400 015101db  .........fd..Q..
 0fb0 00000002 91641d69 70000152 017c0000  .....d.ip..R.|..
 0fc0 00029168 1d696672 00015301 4a080000  ...h.ifr..S.J...
 0fd0 0291441d 70416464 72000154 01e50f00  ..D.pAddr..T....
 0fe0 0002916c 0006043c 0600001b 5d100000  ...l...<....]...
 0ff0 0153425f 4765744d 61736b00 01640101  .SB_GetMask..d..
 1000 7c000000 28110000 c0110000 f8010000  |...(...........
 1010 1c2a0000 00016301 88010000 0391bc7f  .*....c.........
 1020 1d666400 016501db 00000002 91641d69  .fd..e.......d.i
 1030 70000166 017c0000 00029168 1d696672  p..f.|.....h.ifr
 1040 00016701 4a080000 0291441d 70416464  ..g.J.....D.pAdd
 1050 72000168 01e50f00 0002916c 001f4a11  r..h.......l..J.
 1060 00000153 425f4765 74476174 65776179  ...SB_GetGateway
 1070 00017801 7c000000 c0110000 5c130000  ..x.|.......\...
 1080 22020000 1d627566 66000179 01b50600  "....buff..y....
 1090 000391e4 7d1d6e6c 00017a01 db000000  ....}.nl..z.....
 10a0 0291641d 64657374 00017b01 1a060000  ..d.dest..{.....
 10b0 0391e07d 1d666c67 7300017c 01db0000  ...}.flgs..|....
 10c0 000391dc 7d1d7265 6600017c 01db0000  ....}.ref..|....
 10d0 000391d8 7d1d7573 6500017c 01db0000  ....}.use..|....
 10e0 000391d4 7d1d6d65 74726963 00017c01  ....}.metric..|.
 10f0 db000000 0391d07d 1d640001 7d01aa00  .......}.d..}...
 1100 00000391 cc7d1d6d 00017d01 aa000000  .....}.m..}.....
 1110 0391c87d 1d670001 7d01aa00 00000391  ...}.g..}.......
 1120 c47d1d66 7000017f 014a1100 00029168  .}.fp....J.....h
 1130 17041200 00101300 001d6966 6c000184  ..........ifl...
 1140 01db0000 0002916c 00000604 a9010000  .......l........
 1150 2053425f 5544505f 41444452 0001033c   SB_UDP_ADDR...<
 1160 06000001 05030000 000000             ...........     
Contents of section .debug_line:
 0000 e3030000 0200c702 00000201 fb0e0d00  ................
 0010 01010101 00000001 0000012f 6f70742f  .........../opt/
 0020 6c656d6f 6e69782f 6364742f 62696e2f  lemonix/cdt/bin/
 0030 2e2e2f6c 69622f67 63632f61 726d2d6c  ../lib/gcc/arm-l
 0040 696e7578 2d676e75 65616269 2f342e31  inux-gnueabi/4.1
 0050 2e312f2e 2e2f2e2e 2f2e2e2f 2e2e2f61  .1/../../../../a
 0060 726d2d6c 696e7578 2d676e75 65616269  rm-linux-gnueabi
 0070 2f696e63 6c756465 2f6e6574 696e6574  /include/netinet
 0080 002f6f70 742f6c65 6d6f6e69 782f6364  ./opt/lemonix/cd
 0090 742f6269 6e2f2e2e 2f6c6962 2f676363  t/bin/../lib/gcc
 00a0 2f61726d 2d6c696e 75782d67 6e756561  /arm-linux-gnuea
 00b0 62692f34 2e312e31 2f2e2e2f 2e2e2f2e  bi/4.1.1/../../.
 00c0 2e2f2e2e 2f61726d 2d6c696e 75782d67  ./../arm-linux-g
 00d0 6e756561 62692f69 6e636c75 64652f62  nueabi/include/b
 00e0 69747300 2f6f7074 2f6c656d 6f6e6978  its./opt/lemonix
 00f0 2f636474 2f62696e 2f2e2e2f 6c69622f  /cdt/bin/../lib/
 0100 6763632f 61726d2d 6c696e75 782d676e  gcc/arm-linux-gn
 0110 75656162 692f342e 312e312f 2e2e2f2e  ueabi/4.1.1/../.
 0120 2e2f2e2e 2f2e2e2f 61726d2d 6c696e75  ./../../arm-linu
 0130 782d676e 75656162 692f696e 636c7564  x-gnueabi/includ
 0140 65002f6f 70742f6c 656d6f6e 69782f63  e./opt/lemonix/c
 0150 64742f62 696e2f2e 2e2f6c69 622f6763  dt/bin/../lib/gc
 0160 632f6172 6d2d6c69 6e75782d 676e7565  c/arm-linux-gnue
 0170 6162692f 342e312e 312f2e2e 2f2e2e2f  abi/4.1.1/../../
 0180 2e2e2f2e 2e2f6172 6d2d6c69 6e75782d  ../../arm-linux-
 0190 676e7565 6162692f 696e636c 7564652f  gnueabi/include/
 01a0 73797300 2f6f7074 2f6c656d 6f6e6978  sys./opt/lemonix
 01b0 2f636474 2f62696e 2f2e2e2f 6c69622f  /cdt/bin/../lib/
 01c0 6763632f 61726d2d 6c696e75 782d676e  gcc/arm-linux-gn
 01d0 75656162 692f342e 312e312f 2e2e2f2e  ueabi/4.1.1/../.
 01e0 2e2f2e2e 2f2e2e2f 61726d2d 6c696e75  ./../../arm-linu
 01f0 782d676e 75656162 692f696e 636c7564  x-gnueabi/includ
 0200 652f6e65 74002f6f 70742f6c 656d6f6e  e/net./opt/lemon
 0210 69782f63 64742f62 696e2f2e 2e2f6c69  ix/cdt/bin/../li
 0220 622f6763 632f6172 6d2d6c69 6e75782d  b/gcc/arm-linux-
 0230 676e7565 6162692f 342e312e 312f696e  gnueabi/4.1.1/in
 0240 636c7564 65000053 425f4e65 74776f72  clude..SB_Networ
 0250 6b2e6300 00000069 6e2e6800 01000073  k.c....in.h....s
 0260 6f636b61 6464722e 68000200 00737464  ockaddr.h....std
 0270 696e742e 68000300 00736f63 6b65742e  int.h....socket.
 0280 68000200 00747970 65732e68 00020000  h....types.h....
 0290 73656c65 63742e68 00040000 74696d65  select.h....time
 02a0 2e680002 00006966 2e680005 00007374  .h....if.h....st
 02b0 64696f2e 68000300 006c6962 696f2e68  dio.h....libio.h
 02c0 00030000 73746464 65662e68 00060000  ....stddef.h....
 02d0 00000502 00000000 030f01f7 bbbc4b4b  ..............KK
 02e0 f34bf49f 9f67f39f 9f67f408 754bd7bc  .K...g...g..uK..
 02f0 08224b69 676af34f bb840821 f36808c9  ."Kigj.O...!.h..
 0300 022813d7 4b4b0892 8368023c 144b08b0  .(..KK...h.<.K..
 0310 83688368 08756703 0982dc08 224b694b  .h.h.ug....."KiK
 0320 4bf34bf3 4bf39f9f 67f39f9f 67f40875  K.K.K...g...g..u
 0330 4b83d8f4 4b69bc4b 6867030c 66c2d702  K...Ki.Khg..f...
 0340 261308c9 02281308 59bb6a69 08cad7bb  &....(..Y.ji....
 0350 674c8368 6785c2d7 02261308 c9022813  gL.hg....&....(.
 0360 0859bbbc 08cad7bb 83686703 0b82db08  .Y.......hg.....
 0370 c9022813 4b4c0859 bb6a69d7 bb6a6967  ..(.KL.Y.ji..jig
 0380 699f674b 4da2bb68 4b694bd7 4bf44b4b  i.gKM..hKiK.K.KK
 0390 6867a1dc 08c90228 134b4b08 59082368  hg.....(.KK.Y.#h
 03a0 6808ca4b 08596868 85d7083d 69f54bd7  h..K.Yhh...=i.K.
 03b0 8367083d 4da04ebb 68839f67 684c2f85  .g.=M.N.h..ghL/.
 03c0 a04ebb68 839f6768 4c2f8584 4d4c9f30  .N.h..ghL/..ML.0
 03d0 684b0238 13d70232 134b6803 7566030d  hK.8...2.Kh.uf..
 03e0 f22f020e 000101                      ./.....         
Contents of section .rodata:
 0000 736f636b 65740000 62696e64 20657272  socket..bind err
 0010 6f720000 2f70726f 632f6e65 742f726f  or../proc/net/ro
 0020 75746500 72000000 256c7825 6c782558  ute.r...%lx%lx%X
 0030 25642564 2564256c 78000000           %d%d%d%lx...    
Contents of section .debug_frame:
 0000 0c000000 ffffffff 0100017c 0e0c0d00  ...........|....
 0010 1c000000 00000000 00000000 0c020000  ................
 0020 440d0c44 8e028d03 8b04440c 0b040000  D..D......D.....
 0030 1c000000 00000000 0c020000 e4020000  ................
 0040 440d0c44 8e028d03 8b04440c 0b040000  D..D......D.....
 0050 1c000000 00000000 f0040000 58020000  ............X...
 0060 440d0c44 8e028d03 8b04440c 0b040000  D..D......D.....
 0070 1c000000 00000000 48070000 24020000  ........H...$...
 0080 440d0c44 8e028d03 8b04440c 0b040000  D..D......D.....
 0090 1c000000 00000000 6c090000 10020000  ........l.......
 00a0 440d0c44 8e028d03 8b04440c 0b040000  D..D......D.....
 00b0 1c000000 00000000 7c0b0000 78010000  ........|...x...
 00c0 440d0c44 8e028d03 8b04440c 0b040000  D..D......D.....
 00d0 1c000000 00000000 f40c0000 30000000  ............0...
 00e0 440d0c44 8e028d03 8b04440c 0b040000  D..D......D.....
 00f0 1c000000 00000000 240d0000 d4000000  ........$.......
 0100 440d0c44 8e028d03 8b04440c 0b040000  D..D......D.....
 0110 1c000000 00000000 f80d0000 b8010000  ................
 0120 440d0c44 8e028d03 8b04440c 0b040000  D..D......D.....
 0130 1c000000 00000000 b00f0000 50000000  ............P...
 0140 440d0c44 8e028d03 8b04440c 0b040000  D..D......D.....
 0150 1c000000 00000000 00100000 90000000  ................
 0160 440d0c44 8e028d03 8b04440c 0b040000  D..D......D.....
 0170 1c000000 00000000 90100000 98000000  ................
 0180 440d0c44 8e028d03 8b04440c 0b040000  D..D......D.....
 0190 1c000000 00000000 28110000 98000000  ........(.......
 01a0 440d0c44 8e028d03 8b04440c 0b040000  D..D......D.....
 01b0 1c000000 00000000 c0110000 9c010000  ................
 01c0 440d0c44 8e028d03 8b04440c 0b040000  D..D......D.....
Contents of section .debug_loc:
 0000 00000000 04000000 01005d04 0000000c  ..........].....
 0010 00000001 005c0c00 00000c02 00000200  .....\..........
 0020 7b040000 00000000 00000c02 00001002  {...............
 0030 00000100 5d100200 00180200 0001005c  ....]..........\
 0040 18020000 f0040000 02007b04 00000000  ..........{.....
 0050 00000000 f0040000 f4040000 01005df4  ..............].
 0060 040000fc 04000001 005cfc04 00004807  .........\....H.
 0070 00000200 7b040000 00000000 00004807  ....{.........H.
 0080 00004c07 00000100 5d4c0700 00540700  ..L.....]L...T..
 0090 0001005c 54070000 6c090000 02007b04  ...\T...l.....{.
 00a0 00000000 00000000 6c090000 70090000  ........l...p...
 00b0 01005d70 09000078 09000001 005c7809  ..]p...x.....\x.
 00c0 00007c0b 00000200 7b040000 00000000  ..|.....{.......
 00d0 00007c0b 0000800b 00000100 5d800b00  ..|.........]...
 00e0 00880b00 0001005c 880b0000 f40c0000  .......\........
 00f0 02007b04 00000000 00000000 f40c0000  ..{.............
 0100 f80c0000 01005df8 0c000000 0d000001  ......].........
 0110 005c000d 0000240d 00000200 7b040000  .\....$.....{...
 0120 00000000 0000240d 0000280d 00000100  ......$...(.....
 0130 5d280d00 00300d00 0001005c 300d0000  ](...0.....\0...
 0140 f80d0000 02007b04 00000000 00000000  ......{.........
 0150 f80d0000 fc0d0000 01005dfc 0d000004  ..........].....
 0160 0e000001 005c040e 0000b00f 00000200  .....\..........
 0170 7b040000 00000000 0000b00f 0000b40f  {...............
 0180 00000100 5db40f00 00bc0f00 0001005c  ....]..........\
 0190 bc0f0000 00100000 02007b04 00000000  ..........{.....
 01a0 00000000 00100000 04100000 01005d04  ..............].
 01b0 1000000c 10000001 005c0c10 00009010  .........\......
 01c0 00000200 7b040000 00000000 00009010  ....{...........
 01d0 00009410 00000100 5d941000 009c1000  ........].......
 01e0 0001005c 9c100000 28110000 02007b04  ...\....(.....{.
 01f0 00000000 00000000 28110000 2c110000  ........(...,...
 0200 01005d2c 11000034 11000001 005c3411  ..],...4.....\4.
 0210 0000c011 00000200 7b040000 00000000  ........{.......
 0220 0000c011 0000c411 00000100 5dc41100  ............]...
 0230 00cc1100 0001005c cc110000 5c130000  .......\....\...
 0240 02007b04 00000000 00000000           ..{.........    
Contents of section .debug_pubnames:
 0000 11010000 02000000 00006b11 00007f08  ..........k.....
 0010 00005342 5f436f6e 6e656374 54637000  ..SB_ConnectTcp.
 0020 3d090000 53425f43 6865636b 436f6e6e  =...SB_CheckConn
 0030 65637400 480a0000 53425f4c 69737465  ect.H...SB_Liste
 0040 6e546370 00dd0a00 0053425f 41636365  nTcp.....SB_Acce
 0050 70745463 7000ae0b 00005342 5f416363  ptTcp.....SB_Acc
 0060 65707454 63704d75 6c746900 840c0000  eptTcpMulti.....
 0070 53425f52 65616454 63700040 0d000053  SB_ReadTcp.@...S
 0080 425f436c 6f736554 63700071 0d000053  B_CloseTcp.q...S
 0090 425f4269 6e645564 7000c70d 00005342  B_BindUdp.....SB
 00a0 5f526561 64556470 00900e00 0053425f  _ReadUdp.....SB_
 00b0 53656e64 55647053 65727665 7200e50e  SendUdpServer...
 00c0 00005342 5f53656e 64556470 436c6965  ..SB_SendUdpClie
 00d0 6e740075 0f000053 425f4765 74497000  nt.u...SB_GetIp.
 00e0 eb0f0000 53425f47 65744d61 736b005d  ....SB_GetMask.]
 00f0 10000053 425f4765 74476174 65776179  ...SB_GetGateway
 0100 00501100 0053425f 5544505f 41444452  .P...SB_UDP_ADDR
 0110 00000000 00                          .....           
Contents of section .debug_aranges:
 0000 1c000000 02000000 00000400 00000000  ................
 0010 00000000 5c130000 00000000 00000000  ....\...........
Contents of section .debug_str:
 0000 736f636b 65745f6e 6f005f5f 61727200  socket_no.__arr.
 0010 5f494f5f 46494c45 00776169 745f7365  _IO_FILE.wait_se
 0020 63007469 6d656f75 74006574 685f6e61  c.timeout.eth_na
 0030 6d650075 6e736967 6e656420 696e7400  me.unsigned int.
Contents of section .comment:
 0000 00474343 3a202847 4e552920 342e312e  .GCC: (GNU) 4.1.
 0010 3100                                 1.              
Contents of section .ARM.attributes:
 0000 41130000 00616561 62690001 09000000  A....aeabi......
 0010 06010801                             ....            
Disassembly of section .text:

00000000 <SB_ConnectTcp>:
       0:	e1a0c00d 	mov	ip, sp
       4:	e92dd800 	stmdb	sp!, {fp, ip, lr, pc}
       8:	e24cb004 	sub	fp, ip, #4	; 0x4
       c:	e24dd040 	sub	sp, sp, #64	; 0x40
      10:	e50b0030 	str	r0, [fp, #-48]
      14:	e50b1034 	str	r1, [fp, #-52]
      18:	e50b2038 	str	r2, [fp, #-56]
      1c:	e50b303c 	str	r3, [fp, #-60]
      20:	e3a00002 	mov	r0, #2	; 0x2
      24:	e3a01001 	mov	r1, #1	; 0x1
      28:	e3a02006 	mov	r2, #6	; 0x6
      2c:	ebfffffe 	bl	0 <socket>
      30:	e1a03000 	mov	r3, r0
      34:	e50b3010 	str	r3, [fp, #-16]
      38:	e51b3010 	ldr	r3, [fp, #-16]
      3c:	e3530000 	cmp	r3, #0	; 0x0
      40:	aa000002 	bge	50 <SB_ConnectTcp+0x50>
      44:	e3e03000 	mvn	r3, #0	; 0x0
      48:	e50b3040 	str	r3, [fp, #-64]
      4c:	ea00006a 	b	1fc <SB_ConnectTcp+0x1fc>
      50:	e3a03001 	mov	r3, #1	; 0x1
      54:	e50b302c 	str	r3, [fp, #-44]
      58:	e3a03000 	mov	r3, #0	; 0x0
      5c:	e50b3028 	str	r3, [fp, #-40]
      60:	e24bc02c 	sub	ip, fp, #44	; 0x2c
      64:	e3a03008 	mov	r3, #8	; 0x8
      68:	e58d3000 	str	r3, [sp]
      6c:	e51b0010 	ldr	r0, [fp, #-16]
      70:	e3a01001 	mov	r1, #1	; 0x1
      74:	e3a0200d 	mov	r2, #13	; 0xd
      78:	e1a0300c 	mov	r3, ip
      7c:	ebfffffe 	bl	0 <setsockopt>
      80:	e3a03001 	mov	r3, #1	; 0x1
      84:	e50b3024 	str	r3, [fp, #-36]
      88:	e24bc024 	sub	ip, fp, #36	; 0x24
      8c:	e3a03004 	mov	r3, #4	; 0x4
      90:	e58d3000 	str	r3, [sp]
      94:	e51b0010 	ldr	r0, [fp, #-16]
      98:	e3a01001 	mov	r1, #1	; 0x1
      9c:	e3a02009 	mov	r2, #9	; 0x9
      a0:	e1a0300c 	mov	r3, ip
      a4:	ebfffffe 	bl	0 <setsockopt>
      a8:	e51b303c 	ldr	r3, [fp, #-60]
      ac:	e3530000 	cmp	r3, #0	; 0x0
      b0:	ca000001 	bgt	bc <SB_ConnectTcp+0xbc>
      b4:	e3a03004 	mov	r3, #4	; 0x4
      b8:	e50b303c 	str	r3, [fp, #-60]
      bc:	e51b303c 	ldr	r3, [fp, #-60]
      c0:	e3530040 	cmp	r3, #64	; 0x40
      c4:	da000001 	ble	d0 <SB_ConnectTcp+0xd0>
      c8:	e3a03040 	mov	r3, #64	; 0x40
      cc:	e50b303c 	str	r3, [fp, #-60]
      d0:	e51b303c 	ldr	r3, [fp, #-60]
      d4:	e1a03503 	mov	r3, r3, lsl #10
      d8:	e50b3024 	str	r3, [fp, #-36]
      dc:	e24bc024 	sub	ip, fp, #36	; 0x24
      e0:	e3a03004 	mov	r3, #4	; 0x4
      e4:	e58d3000 	str	r3, [sp]
      e8:	e51b0010 	ldr	r0, [fp, #-16]
      ec:	e3a01001 	mov	r1, #1	; 0x1
      f0:	e3a02007 	mov	r2, #7	; 0x7
      f4:	e1a0300c 	mov	r3, ip
      f8:	ebfffffe 	bl	0 <setsockopt>
      fc:	e59b3004 	ldr	r3, [fp, #4]
     100:	e3530000 	cmp	r3, #0	; 0x0
     104:	ca000001 	bgt	110 <SB_ConnectTcp+0x110>
     108:	e3a03004 	mov	r3, #4	; 0x4
     10c:	e58b3004 	str	r3, [fp, #4]
     110:	e59b3004 	ldr	r3, [fp, #4]
     114:	e3530040 	cmp	r3, #64	; 0x40
     118:	da000001 	ble	124 <SB_ConnectTcp+0x124>
     11c:	e3a03040 	mov	r3, #64	; 0x40
     120:	e58b3004 	str	r3, [fp, #4]
     124:	e59b3004 	ldr	r3, [fp, #4]
     128:	e1a03503 	mov	r3, r3, lsl #10
     12c:	e50b3024 	str	r3, [fp, #-36]
     130:	e24bc024 	sub	ip, fp, #36	; 0x24
     134:	e3a03004 	mov	r3, #4	; 0x4
     138:	e58d3000 	str	r3, [sp]
     13c:	e51b0010 	ldr	r0, [fp, #-16]
     140:	e3a01001 	mov	r1, #1	; 0x1
     144:	e3a02008 	mov	r2, #8	; 0x8
     148:	e1a0300c 	mov	r3, ip
     14c:	ebfffffe 	bl	0 <setsockopt>
     150:	e24b3020 	sub	r3, fp, #32	; 0x20
     154:	e3a02000 	mov	r2, #0	; 0x0
     158:	e5832000 	str	r2, [r3]
     15c:	e2833004 	add	r3, r3, #4	; 0x4
     160:	e3a02000 	mov	r2, #0	; 0x0
     164:	e5832000 	str	r2, [r3]
     168:	e2833004 	add	r3, r3, #4	; 0x4
     16c:	e3a02000 	mov	r2, #0	; 0x0
     170:	e5832000 	str	r2, [r3]
     174:	e2833004 	add	r3, r3, #4	; 0x4
     178:	e3a02000 	mov	r2, #0	; 0x0
     17c:	e5832000 	str	r2, [r3]
     180:	e3a03002 	mov	r3, #2	; 0x2
     184:	e14b32b0 	strh	r3, [fp, #-32]
     188:	e51b3034 	ldr	r3, [fp, #-52]
     18c:	e1a03803 	mov	r3, r3, lsl #16
     190:	e1a03823 	mov	r3, r3, lsr #16
     194:	e1a00003 	mov	r0, r3
     198:	ebfffffe 	bl	0 <htons>
     19c:	e1a03000 	mov	r3, r0
     1a0:	e14b31be 	strh	r3, [fp, #-30]
     1a4:	e24b3020 	sub	r3, fp, #32	; 0x20
     1a8:	e2833004 	add	r3, r3, #4	; 0x4
     1ac:	e3a00002 	mov	r0, #2	; 0x2
     1b0:	e51b1030 	ldr	r1, [fp, #-48]
     1b4:	e1a02003 	mov	r2, r3
     1b8:	ebfffffe 	bl	0 <inet_pton>
     1bc:	e24b3020 	sub	r3, fp, #32	; 0x20
     1c0:	e51b0010 	ldr	r0, [fp, #-16]
     1c4:	e1a01003 	mov	r1, r3
     1c8:	e3a02010 	mov	r2, #16	; 0x10
     1cc:	e51b3038 	ldr	r3, [fp, #-56]
     1d0:	ebfffffe 	bl	20c <SB_CheckConnect>
     1d4:	e1a03000 	mov	r3, r0
     1d8:	e3530000 	cmp	r3, #0	; 0x0
     1dc:	aa000004 	bge	1f4 <SB_ConnectTcp+0x1f4>
     1e0:	e51b0010 	ldr	r0, [fp, #-16]
     1e4:	ebfffffe 	bl	0 <close>
     1e8:	e3e03000 	mvn	r3, #0	; 0x0
     1ec:	e50b3040 	str	r3, [fp, #-64]
     1f0:	ea000001 	b	1fc <SB_ConnectTcp+0x1fc>
     1f4:	e51b3010 	ldr	r3, [fp, #-16]
     1f8:	e50b3040 	str	r3, [fp, #-64]
     1fc:	e51b3040 	ldr	r3, [fp, #-64]
     200:	e1a00003 	mov	r0, r3
     204:	e24bd00c 	sub	sp, fp, #12	; 0xc
     208:	e89da800 	ldmia	sp, {fp, sp, pc}

0000020c <SB_CheckConnect>:
     20c:	e1a0c00d 	mov	ip, sp
     210:	e92dd800 	stmdb	sp!, {fp, ip, lr, pc}
     214:	e24cb004 	sub	fp, ip, #4	; 0x4
     218:	e24ddd05 	sub	sp, sp, #320	; 0x140
     21c:	e50b0130 	str	r0, [fp, #-304]
     220:	e50b1134 	str	r1, [fp, #-308]
     224:	e50b2138 	str	r2, [fp, #-312]
     228:	e50b313c 	str	r3, [fp, #-316]
     22c:	e3a03000 	mov	r3, #0	; 0x0
     230:	e50b3020 	str	r3, [fp, #-32]
     234:	e51b0130 	ldr	r0, [fp, #-304]
     238:	e3a01003 	mov	r1, #3	; 0x3
     23c:	e3a02000 	mov	r2, #0	; 0x0
     240:	ebfffffe 	bl	0 <fcntl>
     244:	e1a03000 	mov	r3, r0
     248:	e50b301c 	str	r3, [fp, #-28]
     24c:	e51b0130 	ldr	r0, [fp, #-304]
     250:	e3a01004 	mov	r1, #4	; 0x4
     254:	e3a02b02 	mov	r2, #2048	; 0x800
     258:	ebfffffe 	bl	0 <fcntl>
     25c:	e51b0130 	ldr	r0, [fp, #-304]
     260:	e51b1134 	ldr	r1, [fp, #-308]
     264:	e51b2138 	ldr	r2, [fp, #-312]
     268:	ebfffffe 	bl	0 <connect>
     26c:	e1a03000 	mov	r3, r0
     270:	e50b3018 	str	r3, [fp, #-24]
     274:	e51b3018 	ldr	r3, [fp, #-24]
     278:	e3530000 	cmp	r3, #0	; 0x0
     27c:	aa000007 	bge	2a0 <SB_CheckConnect+0x94>
     280:	ebfffffe 	bl	0 <__errno_location>
     284:	e1a03000 	mov	r3, r0
     288:	e5933000 	ldr	r3, [r3]
     28c:	e3530073 	cmp	r3, #115	; 0x73
     290:	0a000002 	beq	2a0 <SB_CheckConnect+0x94>
     294:	e3e00000 	mvn	r0, #0	; 0x0
     298:	e50b0140 	str	r0, [fp, #-320]
     29c:	ea00008e 	b	4dc <SB_CheckConnect+0x2d0>
     2a0:	e51b3018 	ldr	r3, [fp, #-24]
     2a4:	e3530000 	cmp	r3, #0	; 0x0
     2a8:	0a00006f 	beq	46c <SB_CheckConnect+0x260>
     2ac:	e24b30a4 	sub	r3, fp, #164	; 0xa4
     2b0:	e50b3010 	str	r3, [fp, #-16]
     2b4:	e3a03000 	mov	r3, #0	; 0x0
     2b8:	e50b3014 	str	r3, [fp, #-20]
     2bc:	ea000006 	b	2dc <SB_CheckConnect+0xd0>
     2c0:	e51b1014 	ldr	r1, [fp, #-20]
     2c4:	e51b2010 	ldr	r2, [fp, #-16]
     2c8:	e3a03000 	mov	r3, #0	; 0x0
     2cc:	e7823101 	str	r3, [r2, r1, lsl #2]
     2d0:	e51b3014 	ldr	r3, [fp, #-20]
     2d4:	e2833001 	add	r3, r3, #1	; 0x1
     2d8:	e50b3014 	str	r3, [fp, #-20]
     2dc:	e51b3014 	ldr	r3, [fp, #-20]
     2e0:	e353001f 	cmp	r3, #31	; 0x1f
     2e4:	9afffff5 	bls	2c0 <SB_CheckConnect+0xb4>
     2e8:	e51b3130 	ldr	r3, [fp, #-304]
     2ec:	e1a032a3 	mov	r3, r3, lsr #5
     2f0:	e1a00003 	mov	r0, r3
     2f4:	e3e02097 	mvn	r2, #151	; 0x97
     2f8:	e1a03103 	mov	r3, r3, lsl #2
     2fc:	e24b100c 	sub	r1, fp, #12	; 0xc
     300:	e0833001 	add	r3, r3, r1
     304:	e0833002 	add	r3, r3, r2
     308:	e5931000 	ldr	r1, [r3]
     30c:	e51b3130 	ldr	r3, [fp, #-304]
     310:	e203201f 	and	r2, r3, #31	; 0x1f
     314:	e3a03001 	mov	r3, #1	; 0x1
     318:	e1a03213 	mov	r3, r3, lsl r2
     31c:	e1811003 	orr	r1, r1, r3
     320:	e3e02097 	mvn	r2, #151	; 0x97
     324:	e1a03100 	mov	r3, r0, lsl #2
     328:	e24b000c 	sub	r0, fp, #12	; 0xc
     32c:	e0833000 	add	r3, r3, r0
     330:	e0833002 	add	r3, r3, r2
     334:	e5831000 	str	r1, [r3]
     338:	e24b3f49 	sub	r3, fp, #292	; 0x124
     33c:	e24b20a4 	sub	r2, fp, #164	; 0xa4
     340:	e3a0c080 	mov	ip, #128	; 0x80
     344:	e1a00003 	mov	r0, r3
     348:	e1a01002 	mov	r1, r2
     34c:	e1a0200c 	mov	r2, ip
     350:	ebfffffe 	bl	0 <memcpy>
     354:	e51b313c 	ldr	r3, [fp, #-316]
     358:	e50b312c 	str	r3, [fp, #-300]
     35c:	e3a03000 	mov	r3, #0	; 0x0
     360:	e50b3128 	str	r3, [fp, #-296]
     364:	e51b3130 	ldr	r3, [fp, #-304]
     368:	e2832001 	add	r2, r3, #1	; 0x1
     36c:	e24b10a4 	sub	r1, fp, #164	; 0xa4
     370:	e24bcf49 	sub	ip, fp, #292	; 0x124
     374:	e24b3f4b 	sub	r3, fp, #300	; 0x12c
     378:	e58d3000 	str	r3, [sp]
     37c:	e1a00002 	mov	r0, r2
     380:	e1a0200c 	mov	r2, ip
     384:	e3a03000 	mov	r3, #0	; 0x0
     388:	ebfffffe 	bl	0 <select>
     38c:	e1a03000 	mov	r3, r0
     390:	e3530000 	cmp	r3, #0	; 0x0
     394:	aa000006 	bge	3b4 <SB_CheckConnect+0x1a8>
     398:	ebfffffe 	bl	0 <__errno_location>
     39c:	e1a02000 	mov	r2, r0
     3a0:	e3a0306e 	mov	r3, #110	; 0x6e
     3a4:	e5823000 	str	r3, [r2]
     3a8:	e3e01000 	mvn	r1, #0	; 0x0
     3ac:	e50b1140 	str	r1, [fp, #-320]
     3b0:	ea000049 	b	4dc <SB_CheckConnect+0x2d0>
     3b4:	e51b3130 	ldr	r3, [fp, #-304]
     3b8:	e1a032a3 	mov	r3, r3, lsr #5
     3bc:	e3e02097 	mvn	r2, #151	; 0x97
     3c0:	e1a03103 	mov	r3, r3, lsl #2
     3c4:	e24b000c 	sub	r0, fp, #12	; 0xc
     3c8:	e0833000 	add	r3, r3, r0
     3cc:	e0833002 	add	r3, r3, r2
     3d0:	e5932000 	ldr	r2, [r3]
     3d4:	e51b3130 	ldr	r3, [fp, #-304]
     3d8:	e203301f 	and	r3, r3, #31	; 0x1f
     3dc:	e1a03352 	mov	r3, r2, asr r3
     3e0:	e2033001 	and	r3, r3, #1	; 0x1
     3e4:	e20330ff 	and	r3, r3, #255	; 0xff
     3e8:	e3530000 	cmp	r3, #0	; 0x0
     3ec:	1a00000e 	bne	42c <SB_CheckConnect+0x220>
     3f0:	e51b3130 	ldr	r3, [fp, #-304]
     3f4:	e1a032a3 	mov	r3, r3, lsr #5
     3f8:	e59f20ec 	ldr	r2, [pc, #236]	; 4ec <.text+0x4ec>
     3fc:	e1a03103 	mov	r3, r3, lsl #2
     400:	e24b100c 	sub	r1, fp, #12	; 0xc
     404:	e0833001 	add	r3, r3, r1
     408:	e0833002 	add	r3, r3, r2
     40c:	e5932000 	ldr	r2, [r3]
     410:	e51b3130 	ldr	r3, [fp, #-304]
     414:	e203301f 	and	r3, r3, #31	; 0x1f
     418:	e1a03352 	mov	r3, r2, asr r3
     41c:	e2033001 	and	r3, r3, #1	; 0x1
     420:	e20330ff 	and	r3, r3, #255	; 0xff
     424:	e3530000 	cmp	r3, #0	; 0x0
     428:	0a00000f 	beq	46c <SB_CheckConnect+0x260>
     42c:	e3a03004 	mov	r3, #4	; 0x4
     430:	e50b3024 	str	r3, [fp, #-36]
     434:	e24bc020 	sub	ip, fp, #32	; 0x20
     438:	e24b3024 	sub	r3, fp, #36	; 0x24
     43c:	e58d3000 	str	r3, [sp]
     440:	e51b0130 	ldr	r0, [fp, #-304]
     444:	e3a01001 	mov	r1, #1	; 0x1
     448:	e3a02004 	mov	r2, #4	; 0x4
     44c:	e1a0300c 	mov	r3, ip
     450:	ebfffffe 	bl	0 <getsockopt>
     454:	e1a03000 	mov	r3, r0
     458:	e3530000 	cmp	r3, #0	; 0x0
     45c:	aa000002 	bge	46c <SB_CheckConnect+0x260>
     460:	e3e03000 	mvn	r3, #0	; 0x0
     464:	e50b3140 	str	r3, [fp, #-320]
     468:	ea00001b 	b	4dc <SB_CheckConnect+0x2d0>
     46c:	e51b0130 	ldr	r0, [fp, #-304]
     470:	e3a01004 	mov	r1, #4	; 0x4
     474:	e3a02b02 	mov	r2, #2048	; 0x800
     478:	ebfffffe 	bl	0 <fcntl>
     47c:	e51b3020 	ldr	r3, [fp, #-32]
     480:	e3530000 	cmp	r3, #0	; 0x0
     484:	0a000006 	beq	4a4 <SB_CheckConnect+0x298>
     488:	ebfffffe 	bl	0 <__errno_location>
     48c:	e1a02000 	mov	r2, r0
     490:	e51b3020 	ldr	r3, [fp, #-32]
     494:	e5823000 	str	r3, [r2]
     498:	e3e00000 	mvn	r0, #0	; 0x0
     49c:	e50b0140 	str	r0, [fp, #-320]
     4a0:	ea00000d 	b	4dc <SB_CheckConnect+0x2d0>
     4a4:	e51b0130 	ldr	r0, [fp, #-304]
     4a8:	e51b1134 	ldr	r1, [fp, #-308]
     4ac:	e51b2138 	ldr	r2, [fp, #-312]
     4b0:	ebfffffe 	bl	0 <connect>
     4b4:	e1a03000 	mov	r3, r0
     4b8:	e50b3018 	str	r3, [fp, #-24]
     4bc:	e51b3018 	ldr	r3, [fp, #-24]
     4c0:	e3530000 	cmp	r3, #0	; 0x0
     4c4:	aa000002 	bge	4d4 <SB_CheckConnect+0x2c8>
     4c8:	e3e01000 	mvn	r1, #0	; 0x0
     4cc:	e50b1140 	str	r1, [fp, #-320]
     4d0:	ea000001 	b	4dc <SB_CheckConnect+0x2d0>
     4d4:	e3a03000 	mov	r3, #0	; 0x0
     4d8:	e50b3140 	str	r3, [fp, #-320]
     4dc:	e51b3140 	ldr	r3, [fp, #-320]
     4e0:	e1a00003 	mov	r0, r3
     4e4:	e24bd00c 	sub	sp, fp, #12	; 0xc
     4e8:	e89da800 	ldmia	sp, {fp, sp, pc}
     4ec:	fffffee8 	undefined instruction 0xfffffee8

000004f0 <SB_ListenTcp>:
     4f0:	e1a0c00d 	mov	ip, sp
     4f4:	e92dd800 	stmdb	sp!, {fp, ip, lr, pc}
     4f8:	e24cb004 	sub	fp, ip, #4	; 0x4
     4fc:	e24dd038 	sub	sp, sp, #56	; 0x38
     500:	e50b0030 	str	r0, [fp, #-48]
     504:	e50b1034 	str	r1, [fp, #-52]
     508:	e50b2038 	str	r2, [fp, #-56]
     50c:	e3a00002 	mov	r0, #2	; 0x2
     510:	e3a01001 	mov	r1, #1	; 0x1
     514:	e3a02006 	mov	r2, #6	; 0x6
     518:	ebfffffe 	bl	0 <socket>
     51c:	e1a03000 	mov	r3, r0
     520:	e50b3010 	str	r3, [fp, #-16]
     524:	e51b3010 	ldr	r3, [fp, #-16]
     528:	e3730001 	cmn	r3, #1	; 0x1
     52c:	1a000004 	bne	544 <SB_ListenTcp+0x54>
     530:	e51b0010 	ldr	r0, [fp, #-16]
     534:	ebfffffe 	bl	0 <close>
     538:	e3e03000 	mvn	r3, #0	; 0x0
     53c:	e50b303c 	str	r3, [fp, #-60]
     540:	ea00007c 	b	738 <SB_ListenTcp+0x248>
     544:	e3a03001 	mov	r3, #1	; 0x1
     548:	e50b302c 	str	r3, [fp, #-44]
     54c:	e3a03000 	mov	r3, #0	; 0x0
     550:	e50b3028 	str	r3, [fp, #-40]
     554:	e24bc02c 	sub	ip, fp, #44	; 0x2c
     558:	e3a03008 	mov	r3, #8	; 0x8
     55c:	e58d3000 	str	r3, [sp]
     560:	e51b0010 	ldr	r0, [fp, #-16]
     564:	e3a01001 	mov	r1, #1	; 0x1
     568:	e3a0200d 	mov	r2, #13	; 0xd
     56c:	e1a0300c 	mov	r3, ip
     570:	ebfffffe 	bl	0 <setsockopt>
     574:	e3a03001 	mov	r3, #1	; 0x1
     578:	e50b3024 	str	r3, [fp, #-36]
     57c:	e24bc024 	sub	ip, fp, #36	; 0x24
     580:	e3a03004 	mov	r3, #4	; 0x4
     584:	e58d3000 	str	r3, [sp]
     588:	e51b0010 	ldr	r0, [fp, #-16]
     58c:	e3a01001 	mov	r1, #1	; 0x1
     590:	e3a02002 	mov	r2, #2	; 0x2
     594:	e1a0300c 	mov	r3, ip
     598:	ebfffffe 	bl	0 <setsockopt>
     59c:	e3a03001 	mov	r3, #1	; 0x1
     5a0:	e50b3024 	str	r3, [fp, #-36]
     5a4:	e24bc024 	sub	ip, fp, #36	; 0x24
     5a8:	e3a03004 	mov	r3, #4	; 0x4
     5ac:	e58d3000 	str	r3, [sp]
     5b0:	e51b0010 	ldr	r0, [fp, #-16]
     5b4:	e3a01001 	mov	r1, #1	; 0x1
     5b8:	e3a02009 	mov	r2, #9	; 0x9
     5bc:	e1a0300c 	mov	r3, ip
     5c0:	ebfffffe 	bl	0 <setsockopt>
     5c4:	e51b3034 	ldr	r3, [fp, #-52]
     5c8:	e3530000 	cmp	r3, #0	; 0x0
     5cc:	ca000001 	bgt	5d8 <SB_ListenTcp+0xe8>
     5d0:	e3a03004 	mov	r3, #4	; 0x4
     5d4:	e50b3034 	str	r3, [fp, #-52]
     5d8:	e51b3034 	ldr	r3, [fp, #-52]
     5dc:	e3530040 	cmp	r3, #64	; 0x40
     5e0:	da000001 	ble	5ec <SB_ListenTcp+0xfc>
     5e4:	e3a03040 	mov	r3, #64	; 0x40
     5e8:	e50b3034 	str	r3, [fp, #-52]
     5ec:	e51b3034 	ldr	r3, [fp, #-52]
     5f0:	e1a03503 	mov	r3, r3, lsl #10
     5f4:	e50b3024 	str	r3, [fp, #-36]
     5f8:	e24bc024 	sub	ip, fp, #36	; 0x24
     5fc:	e3a03004 	mov	r3, #4	; 0x4
     600:	e58d3000 	str	r3, [sp]
     604:	e51b0010 	ldr	r0, [fp, #-16]
     608:	e3a01001 	mov	r1, #1	; 0x1
     60c:	e3a02007 	mov	r2, #7	; 0x7
     610:	e1a0300c 	mov	r3, ip
     614:	ebfffffe 	bl	0 <setsockopt>
     618:	e51b3038 	ldr	r3, [fp, #-56]
     61c:	e3530000 	cmp	r3, #0	; 0x0
     620:	ca000001 	bgt	62c <SB_ListenTcp+0x13c>
     624:	e3a03004 	mov	r3, #4	; 0x4
     628:	e50b3038 	str	r3, [fp, #-56]
     62c:	e51b3038 	ldr	r3, [fp, #-56]
     630:	e3530040 	cmp	r3, #64	; 0x40
     634:	da000001 	ble	640 <SB_ListenTcp+0x150>
     638:	e3a03040 	mov	r3, #64	; 0x40
     63c:	e50b3038 	str	r3, [fp, #-56]
     640:	e51b3038 	ldr	r3, [fp, #-56]
     644:	e1a03503 	mov	r3, r3, lsl #10
     648:	e50b3024 	str	r3, [fp, #-36]
     64c:	e24bc024 	sub	ip, fp, #36	; 0x24
     650:	e3a03004 	mov	r3, #4	; 0x4
     654:	e58d3000 	str	r3, [sp]
     658:	e51b0010 	ldr	r0, [fp, #-16]
     65c:	e3a01001 	mov	r1, #1	; 0x1
     660:	e3a02008 	mov	r2, #8	; 0x8
     664:	e1a0300c 	mov	r3, ip
     668:	ebfffffe 	bl	0 <setsockopt>
     66c:	e24b3020 	sub	r3, fp, #32	; 0x20
     670:	e3a02000 	mov	r2, #0	; 0x0
     674:	e5832000 	str	r2, [r3]
     678:	e2833004 	add	r3, r3, #4	; 0x4
     67c:	e3a02000 	mov	r2, #0	; 0x0
     680:	e5832000 	str	r2, [r3]
     684:	e2833004 	add	r3, r3, #4	; 0x4
     688:	e3a02000 	mov	r2, #0	; 0x0
     68c:	e5832000 	str	r2, [r3]
     690:	e2833004 	add	r3, r3, #4	; 0x4
     694:	e3a02000 	mov	r2, #0	; 0x0
     698:	e5832000 	str	r2, [r3]
     69c:	e3a03002 	mov	r3, #2	; 0x2
     6a0:	e14b32b0 	strh	r3, [fp, #-32]
     6a4:	e3a00000 	mov	r0, #0	; 0x0
     6a8:	ebfffffe 	bl	0 <htonl>
     6ac:	e1a03000 	mov	r3, r0
     6b0:	e50b301c 	str	r3, [fp, #-28]
     6b4:	e51b3030 	ldr	r3, [fp, #-48]
     6b8:	e1a03803 	mov	r3, r3, lsl #16
     6bc:	e1a03823 	mov	r3, r3, lsr #16
     6c0:	e1a00003 	mov	r0, r3
     6c4:	ebfffffe 	bl	0 <htons>
     6c8:	e1a03000 	mov	r3, r0
     6cc:	e14b31be 	strh	r3, [fp, #-30]
     6d0:	e24b3020 	sub	r3, fp, #32	; 0x20
     6d4:	e51b0010 	ldr	r0, [fp, #-16]
     6d8:	e1a01003 	mov	r1, r3
     6dc:	e3a02010 	mov	r2, #16	; 0x10
     6e0:	ebfffffe 	bl	0 <bind>
     6e4:	e1a03000 	mov	r3, r0
     6e8:	e3530000 	cmp	r3, #0	; 0x0
     6ec:	aa000004 	bge	704 <SB_ListenTcp+0x214>
     6f0:	e51b0010 	ldr	r0, [fp, #-16]
     6f4:	ebfffffe 	bl	0 <close>
     6f8:	e3e03000 	mvn	r3, #0	; 0x0
     6fc:	e50b303c 	str	r3, [fp, #-60]
     700:	ea00000c 	b	738 <SB_ListenTcp+0x248>
     704:	e51b0010 	ldr	r0, [fp, #-16]
     708:	e3a01001 	mov	r1, #1	; 0x1
     70c:	ebfffffe 	bl	0 <listen>
     710:	e1a03000 	mov	r3, r0
     714:	e3730001 	cmn	r3, #1	; 0x1
     718:	1a000004 	bne	730 <SB_ListenTcp+0x240>
     71c:	e51b0010 	ldr	r0, [fp, #-16]
     720:	ebfffffe 	bl	0 <close>
     724:	e3e03000 	mvn	r3, #0	; 0x0
     728:	e50b303c 	str	r3, [fp, #-60]
     72c:	ea000001 	b	738 <SB_ListenTcp+0x248>
     730:	e51b3010 	ldr	r3, [fp, #-16]
     734:	e50b303c 	str	r3, [fp, #-60]
     738:	e51b303c 	ldr	r3, [fp, #-60]
     73c:	e1a00003 	mov	r0, r3
     740:	e24bd00c 	sub	sp, fp, #12	; 0xc
     744:	e89da800 	ldmia	sp, {fp, sp, pc}

00000748 <SB_AcceptTcp>:
     748:	e1a0c00d 	mov	ip, sp
     74c:	e92dd800 	stmdb	sp!, {fp, ip, lr, pc}
     750:	e24cb004 	sub	fp, ip, #4	; 0x4
     754:	e24dd0c8 	sub	sp, sp, #200	; 0xc8
     758:	e50b00c0 	str	r0, [fp, #-192]
     75c:	e50b10c4 	str	r1, [fp, #-196]
     760:	e51b10c4 	ldr	r1, [fp, #-196]
     764:	e59f31fc 	ldr	r3, [pc, #508]	; 968 <.text+0x968>
     768:	e0c30391 	smull	r0, r3, r1, r3
     76c:	e1a02343 	mov	r2, r3, asr #6
     770:	e1a03fc1 	mov	r3, r1, asr #31
     774:	e0633002 	rsb	r3, r3, r2
     778:	e50b30a4 	str	r3, [fp, #-164]
     77c:	e51b10c4 	ldr	r1, [fp, #-196]
     780:	e59f31e0 	ldr	r3, [pc, #480]	; 968 <.text+0x968>
     784:	e0c32391 	smull	r2, r3, r1, r3
     788:	e1a02343 	mov	r2, r3, asr #6
     78c:	e1a03fc1 	mov	r3, r1, asr #31
     790:	e0632002 	rsb	r2, r3, r2
     794:	e50b20cc 	str	r2, [fp, #-204]
     798:	e51b30cc 	ldr	r3, [fp, #-204]
     79c:	e1a03283 	mov	r3, r3, lsl #5
     7a0:	e51b00cc 	ldr	r0, [fp, #-204]
     7a4:	e0603003 	rsb	r3, r0, r3
     7a8:	e1a03103 	mov	r3, r3, lsl #2
     7ac:	e51b20cc 	ldr	r2, [fp, #-204]
     7b0:	e0833002 	add	r3, r3, r2
     7b4:	e1a03183 	mov	r3, r3, lsl #3
     7b8:	e0631001 	rsb	r1, r3, r1
     7bc:	e50b10cc 	str	r1, [fp, #-204]
     7c0:	e51b30cc 	ldr	r3, [fp, #-204]
     7c4:	e50b30a0 	str	r3, [fp, #-160]
     7c8:	e24b309c 	sub	r3, fp, #156	; 0x9c
     7cc:	e50b3010 	str	r3, [fp, #-16]
     7d0:	e3a03000 	mov	r3, #0	; 0x0
     7d4:	e50b3014 	str	r3, [fp, #-20]
     7d8:	ea000006 	b	7f8 <SB_AcceptTcp+0xb0>
     7dc:	e51b1014 	ldr	r1, [fp, #-20]
     7e0:	e51b2010 	ldr	r2, [fp, #-16]
     7e4:	e3a03000 	mov	r3, #0	; 0x0
     7e8:	e7823101 	str	r3, [r2, r1, lsl #2]
     7ec:	e51b3014 	ldr	r3, [fp, #-20]
     7f0:	e2833001 	add	r3, r3, #1	; 0x1
     7f4:	e50b3014 	str	r3, [fp, #-20]
     7f8:	e51b3014 	ldr	r3, [fp, #-20]
     7fc:	e353001f 	cmp	r3, #31	; 0x1f
     800:	9afffff5 	bls	7dc <SB_AcceptTcp+0x94>
     804:	e51b30c0 	ldr	r3, [fp, #-192]
     808:	e1a032a3 	mov	r3, r3, lsr #5
     80c:	e1a00003 	mov	r0, r3
     810:	e3e0208f 	mvn	r2, #143	; 0x8f
     814:	e1a03103 	mov	r3, r3, lsl #2
     818:	e24b100c 	sub	r1, fp, #12	; 0xc
     81c:	e0833001 	add	r3, r3, r1
     820:	e0833002 	add	r3, r3, r2
     824:	e5931000 	ldr	r1, [r3]
     828:	e51b30c0 	ldr	r3, [fp, #-192]
     82c:	e203201f 	and	r2, r3, #31	; 0x1f
     830:	e3a03001 	mov	r3, #1	; 0x1
     834:	e1a03213 	mov	r3, r3, lsl r2
     838:	e1811003 	orr	r1, r1, r3
     83c:	e3e0208f 	mvn	r2, #143	; 0x8f
     840:	e1a03100 	mov	r3, r0, lsl #2
     844:	e24b000c 	sub	r0, fp, #12	; 0xc
     848:	e0833000 	add	r3, r3, r0
     84c:	e0833002 	add	r3, r3, r2
     850:	e5831000 	str	r1, [r3]
     854:	e51b30c0 	ldr	r3, [fp, #-192]
     858:	e2832001 	add	r2, r3, #1	; 0x1
     85c:	e24b109c 	sub	r1, fp, #156	; 0x9c
     860:	e24b30a4 	sub	r3, fp, #164	; 0xa4
     864:	e58d3000 	str	r3, [sp]
     868:	e1a00002 	mov	r0, r2
     86c:	e3a02000 	mov	r2, #0	; 0x0
     870:	e3a03000 	mov	r3, #0	; 0x0
     874:	ebfffffe 	bl	0 <select>
     878:	e1a03000 	mov	r3, r0
     87c:	e50b3018 	str	r3, [fp, #-24]
     880:	e51b3018 	ldr	r3, [fp, #-24]
     884:	e3530000 	cmp	r3, #0	; 0x0
     888:	1a000002 	bne	898 <SB_AcceptTcp+0x150>
     88c:	e3a01000 	mov	r1, #0	; 0x0
     890:	e50b10c8 	str	r1, [fp, #-200]
     894:	ea00002f 	b	958 <SB_AcceptTcp+0x210>
     898:	e51b3018 	ldr	r3, [fp, #-24]
     89c:	e3530000 	cmp	r3, #0	; 0x0
     8a0:	aa000002 	bge	8b0 <SB_AcceptTcp+0x168>
     8a4:	e3e02000 	mvn	r2, #0	; 0x0
     8a8:	e50b20c8 	str	r2, [fp, #-200]
     8ac:	ea000029 	b	958 <SB_AcceptTcp+0x210>
     8b0:	e51b30c0 	ldr	r3, [fp, #-192]
     8b4:	e1a032a3 	mov	r3, r3, lsr #5
     8b8:	e3e0208f 	mvn	r2, #143	; 0x8f
     8bc:	e1a03103 	mov	r3, r3, lsl #2
     8c0:	e24b000c 	sub	r0, fp, #12	; 0xc
     8c4:	e0833000 	add	r3, r3, r0
     8c8:	e0833002 	add	r3, r3, r2
     8cc:	e5932000 	ldr	r2, [r3]
     8d0:	e51b30c0 	ldr	r3, [fp, #-192]
     8d4:	e203301f 	and	r3, r3, #31	; 0x1f
     8d8:	e1a03352 	mov	r3, r2, asr r3
     8dc:	e2033001 	and	r3, r3, #1	; 0x1
     8e0:	e20330ff 	and	r3, r3, #255	; 0xff
     8e4:	e3530000 	cmp	r3, #0	; 0x0
     8e8:	0a000018 	beq	950 <SB_AcceptTcp+0x208>
     8ec:	e24b30b8 	sub	r3, fp, #184	; 0xb8
     8f0:	e24b20a8 	sub	r2, fp, #168	; 0xa8
     8f4:	e51b00c0 	ldr	r0, [fp, #-192]
     8f8:	e1a01003 	mov	r1, r3
     8fc:	ebfffffe 	bl	0 <accept>
     900:	e1a03000 	mov	r3, r0
     904:	e50b301c 	str	r3, [fp, #-28]
     908:	e51b301c 	ldr	r3, [fp, #-28]
     90c:	e3730001 	cmn	r3, #1	; 0x1
     910:	1a000002 	bne	920 <SB_AcceptTcp+0x1d8>
     914:	e3a01000 	mov	r1, #0	; 0x0
     918:	e50b10c8 	str	r1, [fp, #-200]
     91c:	ea00000d 	b	958 <SB_AcceptTcp+0x210>
     920:	e51b00c0 	ldr	r0, [fp, #-192]
     924:	e3a01002 	mov	r1, #2	; 0x2
     928:	ebfffffe 	bl	0 <shutdown>
     92c:	e51b00c0 	ldr	r0, [fp, #-192]
     930:	ebfffffe 	bl	0 <close>
     934:	e51b001c 	ldr	r0, [fp, #-28]
     938:	e3a01004 	mov	r1, #4	; 0x4
     93c:	e3a02b02 	mov	r2, #2048	; 0x800
     940:	ebfffffe 	bl	0 <fcntl>
     944:	e51b201c 	ldr	r2, [fp, #-28]
     948:	e50b20c8 	str	r2, [fp, #-200]
     94c:	ea000001 	b	958 <SB_AcceptTcp+0x210>
     950:	e3a03000 	mov	r3, #0	; 0x0
     954:	e50b30c8 	str	r3, [fp, #-200]
     958:	e51b30c8 	ldr	r3, [fp, #-200]
     95c:	e1a00003 	mov	r0, r3
     960:	e24bd00c 	sub	sp, fp, #12	; 0xc
     964:	e89da800 	ldmia	sp, {fp, sp, pc}
     968:	10624dd3 	ldrned	r4, [r2], #-211

0000096c <SB_AcceptTcpMulti>:
     96c:	e1a0c00d 	mov	ip, sp
     970:	e92dd800 	stmdb	sp!, {fp, ip, lr, pc}
     974:	e24cb004 	sub	fp, ip, #4	; 0x4
     978:	e24dd0c8 	sub	sp, sp, #200	; 0xc8
     97c:	e50b00c0 	str	r0, [fp, #-192]
     980:	e50b10c4 	str	r1, [fp, #-196]
     984:	e51b10c4 	ldr	r1, [fp, #-196]
     988:	e59f31e8 	ldr	r3, [pc, #488]	; b78 <.text+0xb78>
     98c:	e0c30391 	smull	r0, r3, r1, r3
     990:	e1a02343 	mov	r2, r3, asr #6
     994:	e1a03fc1 	mov	r3, r1, asr #31
     998:	e0633002 	rsb	r3, r3, r2
     99c:	e50b30a4 	str	r3, [fp, #-164]
     9a0:	e51b10c4 	ldr	r1, [fp, #-196]
     9a4:	e59f31cc 	ldr	r3, [pc, #460]	; b78 <.text+0xb78>
     9a8:	e0c32391 	smull	r2, r3, r1, r3
     9ac:	e1a02343 	mov	r2, r3, asr #6
     9b0:	e1a03fc1 	mov	r3, r1, asr #31
     9b4:	e0632002 	rsb	r2, r3, r2
     9b8:	e50b20cc 	str	r2, [fp, #-204]
     9bc:	e51b30cc 	ldr	r3, [fp, #-204]
     9c0:	e1a03283 	mov	r3, r3, lsl #5
     9c4:	e51b00cc 	ldr	r0, [fp, #-204]
     9c8:	e0603003 	rsb	r3, r0, r3
     9cc:	e1a03103 	mov	r3, r3, lsl #2
     9d0:	e51b20cc 	ldr	r2, [fp, #-204]
     9d4:	e0833002 	add	r3, r3, r2
     9d8:	e1a03183 	mov	r3, r3, lsl #3
     9dc:	e0631001 	rsb	r1, r3, r1
     9e0:	e50b10cc 	str	r1, [fp, #-204]
     9e4:	e51b30cc 	ldr	r3, [fp, #-204]
     9e8:	e50b30a0 	str	r3, [fp, #-160]
     9ec:	e24b309c 	sub	r3, fp, #156	; 0x9c
     9f0:	e50b3010 	str	r3, [fp, #-16]
     9f4:	e3a03000 	mov	r3, #0	; 0x0
     9f8:	e50b3014 	str	r3, [fp, #-20]
     9fc:	ea000006 	b	a1c <SB_AcceptTcpMulti+0xb0>
     a00:	e51b1014 	ldr	r1, [fp, #-20]
     a04:	e51b2010 	ldr	r2, [fp, #-16]
     a08:	e3a03000 	mov	r3, #0	; 0x0
     a0c:	e7823101 	str	r3, [r2, r1, lsl #2]
     a10:	e51b3014 	ldr	r3, [fp, #-20]
     a14:	e2833001 	add	r3, r3, #1	; 0x1
     a18:	e50b3014 	str	r3, [fp, #-20]
     a1c:	e51b3014 	ldr	r3, [fp, #-20]
     a20:	e353001f 	cmp	r3, #31	; 0x1f
     a24:	9afffff5 	bls	a00 <SB_AcceptTcpMulti+0x94>
     a28:	e51b30c0 	ldr	r3, [fp, #-192]
     a2c:	e1a032a3 	mov	r3, r3, lsr #5
     a30:	e1a00003 	mov	r0, r3
     a34:	e3e0208f 	mvn	r2, #143	; 0x8f
     a38:	e1a03103 	mov	r3, r3, lsl #2
     a3c:	e24b100c 	sub	r1, fp, #12	; 0xc
     a40:	e0833001 	add	r3, r3, r1
     a44:	e0833002 	add	r3, r3, r2
     a48:	e5931000 	ldr	r1, [r3]
     a4c:	e51b30c0 	ldr	r3, [fp, #-192]
     a50:	e203201f 	and	r2, r3, #31	; 0x1f
     a54:	e3a03001 	mov	r3, #1	; 0x1
     a58:	e1a03213 	mov	r3, r3, lsl r2
     a5c:	e1811003 	orr	r1, r1, r3
     a60:	e3e0208f 	mvn	r2, #143	; 0x8f
     a64:	e1a03100 	mov	r3, r0, lsl #2
     a68:	e24b000c 	sub	r0, fp, #12	; 0xc
     a6c:	e0833000 	add	r3, r3, r0
     a70:	e0833002 	add	r3, r3, r2
     a74:	e5831000 	str	r1, [r3]
     a78:	e51b30c0 	ldr	r3, [fp, #-192]
     a7c:	e2832001 	add	r2, r3, #1	; 0x1
     a80:	e24b109c 	sub	r1, fp, #156	; 0x9c
     a84:	e24b30a4 	sub	r3, fp, #164	; 0xa4
     a88:	e58d3000 	str	r3, [sp]
     a8c:	e1a00002 	mov	r0, r2
     a90:	e3a02000 	mov	r2, #0	; 0x0
     a94:	e3a03000 	mov	r3, #0	; 0x0
     a98:	ebfffffe 	bl	0 <select>
     a9c:	e1a03000 	mov	r3, r0
     aa0:	e50b3018 	str	r3, [fp, #-24]
     aa4:	e51b3018 	ldr	r3, [fp, #-24]
     aa8:	e3530000 	cmp	r3, #0	; 0x0
     aac:	1a000002 	bne	abc <SB_AcceptTcpMulti+0x150>
     ab0:	e3a01000 	mov	r1, #0	; 0x0
     ab4:	e50b10c8 	str	r1, [fp, #-200]
     ab8:	ea00002a 	b	b68 <SB_AcceptTcpMulti+0x1fc>
     abc:	e51b3018 	ldr	r3, [fp, #-24]
     ac0:	e3530000 	cmp	r3, #0	; 0x0
     ac4:	aa000002 	bge	ad4 <SB_AcceptTcpMulti+0x168>
     ac8:	e3e02000 	mvn	r2, #0	; 0x0
     acc:	e50b20c8 	str	r2, [fp, #-200]
     ad0:	ea000024 	b	b68 <SB_AcceptTcpMulti+0x1fc>
     ad4:	e51b30c0 	ldr	r3, [fp, #-192]
     ad8:	e1a032a3 	mov	r3, r3, lsr #5
     adc:	e3e0208f 	mvn	r2, #143	; 0x8f
     ae0:	e1a03103 	mov	r3, r3, lsl #2
     ae4:	e24b000c 	sub	r0, fp, #12	; 0xc
     ae8:	e0833000 	add	r3, r3, r0
     aec:	e0833002 	add	r3, r3, r2
     af0:	e5932000 	ldr	r2, [r3]
     af4:	e51b30c0 	ldr	r3, [fp, #-192]
     af8:	e203301f 	and	r3, r3, #31	; 0x1f
     afc:	e1a03352 	mov	r3, r2, asr r3
     b00:	e2033001 	and	r3, r3, #1	; 0x1
     b04:	e20330ff 	and	r3, r3, #255	; 0xff
     b08:	e3530000 	cmp	r3, #0	; 0x0
     b0c:	0a000013 	beq	b60 <SB_AcceptTcpMulti+0x1f4>
     b10:	e24b30b8 	sub	r3, fp, #184	; 0xb8
     b14:	e24b20a8 	sub	r2, fp, #168	; 0xa8
     b18:	e51b00c0 	ldr	r0, [fp, #-192]
     b1c:	e1a01003 	mov	r1, r3
     b20:	ebfffffe 	bl	0 <accept>
     b24:	e1a03000 	mov	r3, r0
     b28:	e50b301c 	str	r3, [fp, #-28]
     b2c:	e51b301c 	ldr	r3, [fp, #-28]
     b30:	e3730001 	cmn	r3, #1	; 0x1
     b34:	1a000002 	bne	b44 <SB_AcceptTcpMulti+0x1d8>
     b38:	e3a01000 	mov	r1, #0	; 0x0
     b3c:	e50b10c8 	str	r1, [fp, #-200]
     b40:	ea000008 	b	b68 <SB_AcceptTcpMulti+0x1fc>
     b44:	e51b001c 	ldr	r0, [fp, #-28]
     b48:	e3a01004 	mov	r1, #4	; 0x4
     b4c:	e3a02b02 	mov	r2, #2048	; 0x800
     b50:	ebfffffe 	bl	0 <fcntl>
     b54:	e51b201c 	ldr	r2, [fp, #-28]
     b58:	e50b20c8 	str	r2, [fp, #-200]
     b5c:	ea000001 	b	b68 <SB_AcceptTcpMulti+0x1fc>
     b60:	e3a03000 	mov	r3, #0	; 0x0
     b64:	e50b30c8 	str	r3, [fp, #-200]
     b68:	e51b30c8 	ldr	r3, [fp, #-200]
     b6c:	e1a00003 	mov	r0, r3
     b70:	e24bd00c 	sub	sp, fp, #12	; 0xc
     b74:	e89da800 	ldmia	sp, {fp, sp, pc}
     b78:	10624dd3 	ldrned	r4, [r2], #-211

00000b7c <SB_ReadTcp>:
     b7c:	e1a0c00d 	mov	ip, sp
     b80:	e92dd800 	stmdb	sp!, {fp, ip, lr, pc}
     b84:	e24cb004 	sub	fp, ip, #4	; 0x4
     b88:	e24dd0b0 	sub	sp, sp, #176	; 0xb0
     b8c:	e50b00a8 	str	r0, [fp, #-168]
     b90:	e50b10ac 	str	r1, [fp, #-172]
     b94:	e50b20b0 	str	r2, [fp, #-176]
     b98:	e24b30a4 	sub	r3, fp, #164	; 0xa4
     b9c:	e50b3010 	str	r3, [fp, #-16]
     ba0:	e3a03000 	mov	r3, #0	; 0x0
     ba4:	e50b3014 	str	r3, [fp, #-20]
     ba8:	ea000006 	b	bc8 <SB_ReadTcp+0x4c>
     bac:	e51b1014 	ldr	r1, [fp, #-20]
     bb0:	e51b2010 	ldr	r2, [fp, #-16]
     bb4:	e3a03000 	mov	r3, #0	; 0x0
     bb8:	e7823101 	str	r3, [r2, r1, lsl #2]
     bbc:	e51b3014 	ldr	r3, [fp, #-20]
     bc0:	e2833001 	add	r3, r3, #1	; 0x1
     bc4:	e50b3014 	str	r3, [fp, #-20]
     bc8:	e51b3014 	ldr	r3, [fp, #-20]
     bcc:	e353001f 	cmp	r3, #31	; 0x1f
     bd0:	9afffff5 	bls	bac <SB_ReadTcp+0x30>
     bd4:	e51b30a8 	ldr	r3, [fp, #-168]
     bd8:	e1a032a3 	mov	r3, r3, lsr #5
     bdc:	e1a00003 	mov	r0, r3
     be0:	e3e02097 	mvn	r2, #151	; 0x97
     be4:	e1a03103 	mov	r3, r3, lsl #2
     be8:	e24b100c 	sub	r1, fp, #12	; 0xc
     bec:	e0833001 	add	r3, r3, r1
     bf0:	e0833002 	add	r3, r3, r2
     bf4:	e5931000 	ldr	r1, [r3]
     bf8:	e51b30a8 	ldr	r3, [fp, #-168]
     bfc:	e203201f 	and	r2, r3, #31	; 0x1f
     c00:	e3a03001 	mov	r3, #1	; 0x1
     c04:	e1a03213 	mov	r3, r3, lsl r2
     c08:	e1811003 	orr	r1, r1, r3
     c0c:	e3e02097 	mvn	r2, #151	; 0x97
     c10:	e1a03100 	mov	r3, r0, lsl #2
     c14:	e24b000c 	sub	r0, fp, #12	; 0xc
     c18:	e0833000 	add	r3, r3, r0
     c1c:	e0833002 	add	r3, r3, r2
     c20:	e5831000 	str	r1, [r3]
     c24:	e3a03000 	mov	r3, #0	; 0x0
     c28:	e50b3024 	str	r3, [fp, #-36]
     c2c:	e3a03001 	mov	r3, #1	; 0x1
     c30:	e50b3020 	str	r3, [fp, #-32]
     c34:	e51b30a8 	ldr	r3, [fp, #-168]
     c38:	e2832001 	add	r2, r3, #1	; 0x1
     c3c:	e24b10a4 	sub	r1, fp, #164	; 0xa4
     c40:	e24b3024 	sub	r3, fp, #36	; 0x24
     c44:	e58d3000 	str	r3, [sp]
     c48:	e1a00002 	mov	r0, r2
     c4c:	e3a02000 	mov	r2, #0	; 0x0
     c50:	e3a03000 	mov	r3, #0	; 0x0
     c54:	ebfffffe 	bl	0 <select>
     c58:	e1a03000 	mov	r3, r0
     c5c:	e50b3018 	str	r3, [fp, #-24]
     c60:	e51b3018 	ldr	r3, [fp, #-24]
     c64:	e3530000 	cmp	r3, #0	; 0x0
     c68:	1a000002 	bne	c78 <SB_ReadTcp+0xfc>
     c6c:	e3a01000 	mov	r1, #0	; 0x0
     c70:	e50b10b4 	str	r1, [fp, #-180]
     c74:	ea00001a 	b	ce4 <SB_ReadTcp+0x168>
     c78:	e51b3018 	ldr	r3, [fp, #-24]
     c7c:	e3530000 	cmp	r3, #0	; 0x0
     c80:	aa000002 	bge	c90 <SB_ReadTcp+0x114>
     c84:	e3e03000 	mvn	r3, #0	; 0x0
     c88:	e50b30b4 	str	r3, [fp, #-180]
     c8c:	ea000014 	b	ce4 <SB_ReadTcp+0x168>
     c90:	e51b30b0 	ldr	r3, [fp, #-176]
     c94:	e51b00a8 	ldr	r0, [fp, #-168]
     c98:	e51b10ac 	ldr	r1, [fp, #-172]
     c9c:	e1a02003 	mov	r2, r3
     ca0:	ebfffffe 	bl	0 <read>
     ca4:	e1a03000 	mov	r3, r0
     ca8:	e50b301c 	str	r3, [fp, #-28]
     cac:	e51b301c 	ldr	r3, [fp, #-28]
     cb0:	e3530000 	cmp	r3, #0	; 0x0
     cb4:	aa000002 	bge	cc4 <SB_ReadTcp+0x148>
     cb8:	e3a00000 	mov	r0, #0	; 0x0
     cbc:	e50b00b4 	str	r0, [fp, #-180]
     cc0:	ea000007 	b	ce4 <SB_ReadTcp+0x168>
     cc4:	e51b301c 	ldr	r3, [fp, #-28]
     cc8:	e3530000 	cmp	r3, #0	; 0x0
     ccc:	1a000002 	bne	cdc <SB_ReadTcp+0x160>
     cd0:	e3e01000 	mvn	r1, #0	; 0x0
     cd4:	e50b10b4 	str	r1, [fp, #-180]
     cd8:	ea000001 	b	ce4 <SB_ReadTcp+0x168>
     cdc:	e51b301c 	ldr	r3, [fp, #-28]
     ce0:	e50b30b4 	str	r3, [fp, #-180]
     ce4:	e51b30b4 	ldr	r3, [fp, #-180]
     ce8:	e1a00003 	mov	r0, r3
     cec:	e24bd00c 	sub	sp, fp, #12	; 0xc
     cf0:	e89da800 	ldmia	sp, {fp, sp, pc}

00000cf4 <SB_CloseTcp>:
     cf4:	e1a0c00d 	mov	ip, sp
     cf8:	e92dd800 	stmdb	sp!, {fp, ip, lr, pc}
     cfc:	e24cb004 	sub	fp, ip, #4	; 0x4
     d00:	e24dd008 	sub	sp, sp, #8	; 0x8
     d04:	e50b0010 	str	r0, [fp, #-16]
     d08:	e51b0010 	ldr	r0, [fp, #-16]
     d0c:	e3a01002 	mov	r1, #2	; 0x2
     d10:	ebfffffe 	bl	0 <shutdown>
     d14:	e51b0010 	ldr	r0, [fp, #-16]
     d18:	ebfffffe 	bl	0 <close>
     d1c:	e24bd00c 	sub	sp, fp, #12	; 0xc
     d20:	e89da800 	ldmia	sp, {fp, sp, pc}

00000d24 <SB_BindUdp>:
     d24:	e1a0c00d 	mov	ip, sp
     d28:	e92dd800 	stmdb	sp!, {fp, ip, lr, pc}
     d2c:	e24cb004 	sub	fp, ip, #4	; 0x4
     d30:	e24dd020 	sub	sp, sp, #32	; 0x20
     d34:	e50b0028 	str	r0, [fp, #-40]
     d38:	e3a00002 	mov	r0, #2	; 0x2
     d3c:	e3a01002 	mov	r1, #2	; 0x2
     d40:	e3a02011 	mov	r2, #17	; 0x11
     d44:	ebfffffe 	bl	0 <socket>
     d48:	e1a03000 	mov	r3, r0
     d4c:	e50b3010 	str	r3, [fp, #-16]
     d50:	e51b3010 	ldr	r3, [fp, #-16]
     d54:	e3730001 	cmn	r3, #1	; 0x1
     d58:	1a000004 	bne	d70 <SB_BindUdp+0x4c>
     d5c:	e59f008c 	ldr	r0, [pc, #140]	; df0 <.text+0xdf0>
     d60:	ebfffffe 	bl	0 <perror>
     d64:	e3a03000 	mov	r3, #0	; 0x0
     d68:	e50b302c 	str	r3, [fp, #-44]
     d6c:	ea00001b 	b	de0 <SB_BindUdp+0xbc>
     d70:	e3a03002 	mov	r3, #2	; 0x2
     d74:	e14b32b0 	strh	r3, [fp, #-32]
     d78:	e51b3028 	ldr	r3, [fp, #-40]
     d7c:	e1a03803 	mov	r3, r3, lsl #16
     d80:	e1a03823 	mov	r3, r3, lsr #16
     d84:	e1a00003 	mov	r0, r3
     d88:	ebfffffe 	bl	0 <htons>
     d8c:	e1a03000 	mov	r3, r0
     d90:	e14b31be 	strh	r3, [fp, #-30]
     d94:	e3a03000 	mov	r3, #0	; 0x0
     d98:	e50b301c 	str	r3, [fp, #-28]
     d9c:	e24b3020 	sub	r3, fp, #32	; 0x20
     da0:	e51b0010 	ldr	r0, [fp, #-16]
     da4:	e1a01003 	mov	r1, r3
     da8:	e3a02010 	mov	r2, #16	; 0x10
     dac:	ebfffffe 	bl	0 <bind>
     db0:	e1a03000 	mov	r3, r0
     db4:	e3530000 	cmp	r3, #0	; 0x0
     db8:	0a000006 	beq	dd8 <SB_BindUdp+0xb4>
     dbc:	e59f0030 	ldr	r0, [pc, #48]	; df4 <.text+0xdf4>
     dc0:	ebfffffe 	bl	0 <printf>
     dc4:	e51b0010 	ldr	r0, [fp, #-16]
     dc8:	ebfffffe 	bl	0 <close>
     dcc:	e3a03000 	mov	r3, #0	; 0x0
     dd0:	e50b302c 	str	r3, [fp, #-44]
     dd4:	ea000001 	b	de0 <SB_BindUdp+0xbc>
     dd8:	e51b3010 	ldr	r3, [fp, #-16]
     ddc:	e50b302c 	str	r3, [fp, #-44]
     de0:	e51b302c 	ldr	r3, [fp, #-44]
     de4:	e1a00003 	mov	r0, r3
     de8:	e24bd00c 	sub	sp, fp, #12	; 0xc
     dec:	e89da800 	ldmia	sp, {fp, sp, pc}
     df0:	00000000 	andeq	r0, r0, r0
     df4:	00000008 	andeq	r0, r0, r8

00000df8 <SB_ReadUdp>:
     df8:	e1a0c00d 	mov	ip, sp
     dfc:	e92dd800 	stmdb	sp!, {fp, ip, lr, pc}
     e00:	e24cb004 	sub	fp, ip, #4	; 0x4
     e04:	e24dd0b8 	sub	sp, sp, #184	; 0xb8
     e08:	e50b00a8 	str	r0, [fp, #-168]
     e0c:	e50b10ac 	str	r1, [fp, #-172]
     e10:	e50b20b0 	str	r2, [fp, #-176]
     e14:	e24b30a0 	sub	r3, fp, #160	; 0xa0
     e18:	e50b3010 	str	r3, [fp, #-16]
     e1c:	e3a03000 	mov	r3, #0	; 0x0
     e20:	e50b3014 	str	r3, [fp, #-20]
     e24:	ea000006 	b	e44 <SB_ReadUdp+0x4c>
     e28:	e51b1014 	ldr	r1, [fp, #-20]
     e2c:	e51b2010 	ldr	r2, [fp, #-16]
     e30:	e3a03000 	mov	r3, #0	; 0x0
     e34:	e7823101 	str	r3, [r2, r1, lsl #2]
     e38:	e51b3014 	ldr	r3, [fp, #-20]
     e3c:	e2833001 	add	r3, r3, #1	; 0x1
     e40:	e50b3014 	str	r3, [fp, #-20]
     e44:	e51b3014 	ldr	r3, [fp, #-20]
     e48:	e353001f 	cmp	r3, #31	; 0x1f
     e4c:	9afffff5 	bls	e28 <SB_ReadUdp+0x30>
     e50:	e51b30a8 	ldr	r3, [fp, #-168]
     e54:	e1a032a3 	mov	r3, r3, lsr #5
     e58:	e1a00003 	mov	r0, r3
     e5c:	e3e02093 	mvn	r2, #147	; 0x93
     e60:	e1a03103 	mov	r3, r3, lsl #2
     e64:	e24b100c 	sub	r1, fp, #12	; 0xc
     e68:	e0833001 	add	r3, r3, r1
     e6c:	e0833002 	add	r3, r3, r2
     e70:	e5931000 	ldr	r1, [r3]
     e74:	e51b30a8 	ldr	r3, [fp, #-168]
     e78:	e203201f 	and	r2, r3, #31	; 0x1f
     e7c:	e3a03001 	mov	r3, #1	; 0x1
     e80:	e1a03213 	mov	r3, r3, lsl r2
     e84:	e1811003 	orr	r1, r1, r3
     e88:	e3e02093 	mvn	r2, #147	; 0x93
     e8c:	e1a03100 	mov	r3, r0, lsl #2
     e90:	e24b000c 	sub	r0, fp, #12	; 0xc
     e94:	e0833000 	add	r3, r3, r0
     e98:	e0833002 	add	r3, r3, r2
     e9c:	e5831000 	str	r1, [r3]
     ea0:	e3a03000 	mov	r3, #0	; 0x0
     ea4:	e50b3020 	str	r3, [fp, #-32]
     ea8:	e3a03001 	mov	r3, #1	; 0x1
     eac:	e50b301c 	str	r3, [fp, #-28]
     eb0:	e51b30a8 	ldr	r3, [fp, #-168]
     eb4:	e2832001 	add	r2, r3, #1	; 0x1
     eb8:	e24b10a0 	sub	r1, fp, #160	; 0xa0
     ebc:	e24b3020 	sub	r3, fp, #32	; 0x20
     ec0:	e58d3000 	str	r3, [sp]
     ec4:	e1a00002 	mov	r0, r2
     ec8:	e3a02000 	mov	r2, #0	; 0x0
     ecc:	e3a03000 	mov	r3, #0	; 0x0
     ed0:	ebfffffe 	bl	0 <select>
     ed4:	e1a03000 	mov	r3, r0
     ed8:	e50b3018 	str	r3, [fp, #-24]
     edc:	e51b1018 	ldr	r1, [fp, #-24]
     ee0:	e50b10b8 	str	r1, [fp, #-184]
     ee4:	e51b30b8 	ldr	r3, [fp, #-184]
     ee8:	e3730001 	cmn	r3, #1	; 0x1
     eec:	0a000003 	beq	f00 <SB_ReadUdp+0x108>
     ef0:	e51b00b8 	ldr	r0, [fp, #-184]
     ef4:	e3500000 	cmp	r0, #0	; 0x0
     ef8:	0a000003 	beq	f0c <SB_ReadUdp+0x114>
     efc:	ea000005 	b	f18 <SB_ReadUdp+0x120>
     f00:	e3e01000 	mvn	r1, #0	; 0x0
     f04:	e50b10b4 	str	r1, [fp, #-180]
     f08:	ea000023 	b	f9c <SB_ReadUdp+0x1a4>
     f0c:	e3a03000 	mov	r3, #0	; 0x0
     f10:	e50b30b4 	str	r3, [fp, #-180]
     f14:	ea000020 	b	f9c <SB_ReadUdp+0x1a4>
     f18:	e51b30a8 	ldr	r3, [fp, #-168]
     f1c:	e1a032a3 	mov	r3, r3, lsr #5
     f20:	e3e02093 	mvn	r2, #147	; 0x93
     f24:	e1a03103 	mov	r3, r3, lsl #2
     f28:	e24b000c 	sub	r0, fp, #12	; 0xc
     f2c:	e0833000 	add	r3, r3, r0
     f30:	e0833002 	add	r3, r3, r2
     f34:	e5932000 	ldr	r2, [r3]
     f38:	e51b30a8 	ldr	r3, [fp, #-168]
     f3c:	e203301f 	and	r3, r3, #31	; 0x1f
     f40:	e1a03352 	mov	r3, r2, asr r3
     f44:	e2033001 	and	r3, r3, #1	; 0x1
     f48:	e20330ff 	and	r3, r3, #255	; 0xff
     f4c:	e3530000 	cmp	r3, #0	; 0x0
     f50:	0a00000f 	beq	f94 <SB_ReadUdp+0x19c>
     f54:	e3a03010 	mov	r3, #16	; 0x10
     f58:	e50b30a4 	str	r3, [fp, #-164]
     f5c:	e51b20b0 	ldr	r2, [fp, #-176]
     f60:	e59f3044 	ldr	r3, [pc, #68]	; fac <.text+0xfac>
     f64:	e58d3000 	str	r3, [sp]
     f68:	e24b30a4 	sub	r3, fp, #164	; 0xa4
     f6c:	e58d3004 	str	r3, [sp, #4]
     f70:	e51b00a8 	ldr	r0, [fp, #-168]
     f74:	e51b10ac 	ldr	r1, [fp, #-172]
     f78:	e3a03000 	mov	r3, #0	; 0x0
     f7c:	ebfffffe 	bl	0 <recvfrom>
     f80:	e1a03000 	mov	r3, r0
     f84:	e50b3018 	str	r3, [fp, #-24]
     f88:	e51b1018 	ldr	r1, [fp, #-24]
     f8c:	e50b10b4 	str	r1, [fp, #-180]
     f90:	ea000001 	b	f9c <SB_ReadUdp+0x1a4>
     f94:	e3a03000 	mov	r3, #0	; 0x0
     f98:	e50b30b4 	str	r3, [fp, #-180]
     f9c:	e51b30b4 	ldr	r3, [fp, #-180]
     fa0:	e1a00003 	mov	r0, r3
     fa4:	e24bd00c 	sub	sp, fp, #12	; 0xc
     fa8:	e89da800 	ldmia	sp, {fp, sp, pc}
     fac:	00000000 	andeq	r0, r0, r0

00000fb0 <SB_SendUdpServer>:
     fb0:	e1a0c00d 	mov	ip, sp
     fb4:	e92dd800 	stmdb	sp!, {fp, ip, lr, pc}
     fb8:	e24cb004 	sub	fp, ip, #4	; 0x4
     fbc:	e24dd018 	sub	sp, sp, #24	; 0x18
     fc0:	e50b0010 	str	r0, [fp, #-16]
     fc4:	e50b1014 	str	r1, [fp, #-20]
     fc8:	e50b2018 	str	r2, [fp, #-24]
     fcc:	e51b3018 	ldr	r3, [fp, #-24]
     fd0:	e59f2024 	ldr	r2, [pc, #36]	; ffc <.text+0xffc>
     fd4:	e58d2000 	str	r2, [sp]
     fd8:	e3a02010 	mov	r2, #16	; 0x10
     fdc:	e58d2004 	str	r2, [sp, #4]
     fe0:	e51b0010 	ldr	r0, [fp, #-16]
     fe4:	e51b1014 	ldr	r1, [fp, #-20]
     fe8:	e1a02003 	mov	r2, r3
     fec:	e3a03000 	mov	r3, #0	; 0x0
     ff0:	ebfffffe 	bl	0 <sendto>
     ff4:	e24bd00c 	sub	sp, fp, #12	; 0xc
     ff8:	e89da800 	ldmia	sp, {fp, sp, pc}
     ffc:	00000000 	andeq	r0, r0, r0

00001000 <SB_SendUdpClient>:
    1000:	e1a0c00d 	mov	ip, sp
    1004:	e92dd800 	stmdb	sp!, {fp, ip, lr, pc}
    1008:	e24cb004 	sub	fp, ip, #4	; 0x4
    100c:	e24dd028 	sub	sp, sp, #40	; 0x28
    1010:	e50b0020 	str	r0, [fp, #-32]
    1014:	e50b1024 	str	r1, [fp, #-36]
    1018:	e50b2028 	str	r2, [fp, #-40]
    101c:	e50b302c 	str	r3, [fp, #-44]
    1020:	e3a03002 	mov	r3, #2	; 0x2
    1024:	e14b31bc 	strh	r3, [fp, #-28]
    1028:	e59b3004 	ldr	r3, [fp, #4]
    102c:	e1a03803 	mov	r3, r3, lsl #16
    1030:	e1a03823 	mov	r3, r3, lsr #16
    1034:	e1a00003 	mov	r0, r3
    1038:	ebfffffe 	bl	0 <htons>
    103c:	e1a03000 	mov	r3, r0
    1040:	e14b31ba 	strh	r3, [fp, #-26]
    1044:	e51b002c 	ldr	r0, [fp, #-44]
    1048:	ebfffffe 	bl	0 <inet_addr>
    104c:	e1a03000 	mov	r3, r0
    1050:	e50b3018 	str	r3, [fp, #-24]
    1054:	e51b3018 	ldr	r3, [fp, #-24]
    1058:	e3730001 	cmn	r3, #1	; 0x1
    105c:	0a000009 	beq	1088 <SB_SendUdpClient+0x88>
    1060:	e51b3028 	ldr	r3, [fp, #-40]
    1064:	e24b201c 	sub	r2, fp, #28	; 0x1c
    1068:	e58d2000 	str	r2, [sp]
    106c:	e3a02010 	mov	r2, #16	; 0x10
    1070:	e58d2004 	str	r2, [sp, #4]
    1074:	e51b0020 	ldr	r0, [fp, #-32]
    1078:	e51b1024 	ldr	r1, [fp, #-36]
    107c:	e1a02003 	mov	r2, r3
    1080:	e3a03000 	mov	r3, #0	; 0x0
    1084:	ebfffffe 	bl	0 <sendto>
    1088:	e24bd00c 	sub	sp, fp, #12	; 0xc
    108c:	e89da800 	ldmia	sp, {fp, sp, pc}

00001090 <SB_GetIp>:
    1090:	e1a0c00d 	mov	ip, sp
    1094:	e92dd800 	stmdb	sp!, {fp, ip, lr, pc}
    1098:	e24cb004 	sub	fp, ip, #4	; 0x4
    109c:	e24dd038 	sub	sp, sp, #56	; 0x38
    10a0:	e50b0040 	str	r0, [fp, #-64]
    10a4:	e3a03000 	mov	r3, #0	; 0x0
    10a8:	e50b3014 	str	r3, [fp, #-20]
    10ac:	e3a00002 	mov	r0, #2	; 0x2
    10b0:	e3a01002 	mov	r1, #2	; 0x2
    10b4:	e3a02000 	mov	r2, #0	; 0x0
    10b8:	ebfffffe 	bl	0 <socket>
    10bc:	e1a03000 	mov	r3, r0
    10c0:	e50b3018 	str	r3, [fp, #-24]
    10c4:	e51b3018 	ldr	r3, [fp, #-24]
    10c8:	e3530000 	cmp	r3, #0	; 0x0
    10cc:	ba000010 	blt	1114 <SB_GetIp+0x84>
    10d0:	e24b3038 	sub	r3, fp, #56	; 0x38
    10d4:	e1a00003 	mov	r0, r3
    10d8:	e51b1040 	ldr	r1, [fp, #-64]
    10dc:	ebfffffe 	bl	0 <strcpy>
    10e0:	e24b3038 	sub	r3, fp, #56	; 0x38
    10e4:	e51b0018 	ldr	r0, [fp, #-24]
    10e8:	e59f1034 	ldr	r1, [pc, #52]	; 1124 <.text+0x1124>
    10ec:	e1a02003 	mov	r2, r3
    10f0:	ebfffffe 	bl	0 <ioctl>
    10f4:	e24b3038 	sub	r3, fp, #56	; 0x38
    10f8:	e2833010 	add	r3, r3, #16	; 0x10
    10fc:	e50b3010 	str	r3, [fp, #-16]
    1100:	e51b3010 	ldr	r3, [fp, #-16]
    1104:	e5933004 	ldr	r3, [r3, #4]
    1108:	e50b3014 	str	r3, [fp, #-20]
    110c:	e51b0018 	ldr	r0, [fp, #-24]
    1110:	ebfffffe 	bl	0 <close>
    1114:	e51b3014 	ldr	r3, [fp, #-20]
    1118:	e1a00003 	mov	r0, r3
    111c:	e24bd00c 	sub	sp, fp, #12	; 0xc
    1120:	e89da800 	ldmia	sp, {fp, sp, pc}
    1124:	00008915 	andeq	r8, r0, r5, lsl r9

00001128 <SB_GetMask>:
    1128:	e1a0c00d 	mov	ip, sp
    112c:	e92dd800 	stmdb	sp!, {fp, ip, lr, pc}
    1130:	e24cb004 	sub	fp, ip, #4	; 0x4
    1134:	e24dd038 	sub	sp, sp, #56	; 0x38
    1138:	e50b0040 	str	r0, [fp, #-64]
    113c:	e3a03000 	mov	r3, #0	; 0x0
    1140:	e50b3014 	str	r3, [fp, #-20]
    1144:	e3a00002 	mov	r0, #2	; 0x2
    1148:	e3a01002 	mov	r1, #2	; 0x2
    114c:	e3a02000 	mov	r2, #0	; 0x0
    1150:	ebfffffe 	bl	0 <socket>
    1154:	e1a03000 	mov	r3, r0
    1158:	e50b3018 	str	r3, [fp, #-24]
    115c:	e51b3018 	ldr	r3, [fp, #-24]
    1160:	e3530000 	cmp	r3, #0	; 0x0
    1164:	ba000010 	blt	11ac <SB_GetMask+0x84>
    1168:	e24b3038 	sub	r3, fp, #56	; 0x38
    116c:	e1a00003 	mov	r0, r3
    1170:	e51b1040 	ldr	r1, [fp, #-64]
    1174:	ebfffffe 	bl	0 <strcpy>
    1178:	e24b3038 	sub	r3, fp, #56	; 0x38
    117c:	e51b0018 	ldr	r0, [fp, #-24]
    1180:	e59f1034 	ldr	r1, [pc, #52]	; 11bc <.text+0x11bc>
    1184:	e1a02003 	mov	r2, r3
    1188:	ebfffffe 	bl	0 <ioctl>
    118c:	e24b3038 	sub	r3, fp, #56	; 0x38
    1190:	e2833010 	add	r3, r3, #16	; 0x10
    1194:	e50b3010 	str	r3, [fp, #-16]
    1198:	e51b3010 	ldr	r3, [fp, #-16]
    119c:	e5933004 	ldr	r3, [r3, #4]
    11a0:	e50b3014 	str	r3, [fp, #-20]
    11a4:	e51b0018 	ldr	r0, [fp, #-24]
    11a8:	ebfffffe 	bl	0 <close>
    11ac:	e51b3014 	ldr	r3, [fp, #-20]
    11b0:	e1a00003 	mov	r0, r3
    11b4:	e24bd00c 	sub	sp, fp, #12	; 0xc
    11b8:	e89da800 	ldmia	sp, {fp, sp, pc}
    11bc:	0000891b 	andeq	r8, r0, fp, lsl r9

000011c0 <SB_GetGateway>:
    11c0:	e1a0c00d 	mov	ip, sp
    11c4:	e92dd800 	stmdb	sp!, {fp, ip, lr, pc}
    11c8:	e24cb004 	sub	fp, ip, #4	; 0x4
    11cc:	e24ddf52 	sub	sp, sp, #328	; 0x148
    11d0:	e3a03000 	mov	r3, #0	; 0x0
    11d4:	e50b3018 	str	r3, [fp, #-24]
    11d8:	e3a03000 	mov	r3, #0	; 0x0
    11dc:	e50b3138 	str	r3, [fp, #-312]
    11e0:	e59f0164 	ldr	r0, [pc, #356]	; 134c <.text+0x134c>
    11e4:	e59f1164 	ldr	r1, [pc, #356]	; 1350 <.text+0x1350>
    11e8:	ebfffffe 	bl	0 <fopen>
    11ec:	e1a03000 	mov	r3, r0
    11f0:	e50b3014 	str	r3, [fp, #-20]
    11f4:	ea000048 	b	131c <SB_GetGateway+0x15c>
    11f8:	e51b3018 	ldr	r3, [fp, #-24]
    11fc:	e3530000 	cmp	r3, #0	; 0x0
    1200:	0a000042 	beq	1310 <SB_GetGateway+0x150>
    1204:	e3a03000 	mov	r3, #0	; 0x0
    1208:	e50b3010 	str	r3, [fp, #-16]
    120c:	ea000002 	b	121c <SB_GetGateway+0x5c>
    1210:	e51b3010 	ldr	r3, [fp, #-16]
    1214:	e2833001 	add	r3, r3, #1	; 0x1
    1218:	e50b3010 	str	r3, [fp, #-16]
    121c:	e51b3010 	ldr	r3, [fp, #-16]
    1220:	e59f212c 	ldr	r2, [pc, #300]	; 1354 <.text+0x1354>
    1224:	e24b100c 	sub	r1, fp, #12	; 0xc
    1228:	e0813003 	add	r3, r1, r3
    122c:	e0833002 	add	r3, r3, r2
    1230:	e5d33000 	ldrb	r3, [r3]
    1234:	e3530020 	cmp	r3, #32	; 0x20
    1238:	0a00000f 	beq	127c <SB_GetGateway+0xbc>
    123c:	e51b3010 	ldr	r3, [fp, #-16]
    1240:	e59f210c 	ldr	r2, [pc, #268]	; 1354 <.text+0x1354>
    1244:	e24b100c 	sub	r1, fp, #12	; 0xc
    1248:	e0813003 	add	r3, r1, r3
    124c:	e0833002 	add	r3, r3, r2
    1250:	e5d33000 	ldrb	r3, [r3]
    1254:	e3530009 	cmp	r3, #9	; 0x9
    1258:	0a000007 	beq	127c <SB_GetGateway+0xbc>
    125c:	e51b3010 	ldr	r3, [fp, #-16]
    1260:	e59f20ec 	ldr	r2, [pc, #236]	; 1354 <.text+0x1354>
    1264:	e24b100c 	sub	r1, fp, #12	; 0xc
    1268:	e0813003 	add	r3, r1, r3
    126c:	e0833002 	add	r3, r3, r2
    1270:	e5d33000 	ldrb	r3, [r3]
    1274:	e3530000 	cmp	r3, #0	; 0x0
    1278:	1affffe4 	bne	1210 <SB_GetGateway+0x50>
    127c:	e51b3010 	ldr	r3, [fp, #-16]
    1280:	e59f20cc 	ldr	r2, [pc, #204]	; 1354 <.text+0x1354>
    1284:	e24b100c 	sub	r1, fp, #12	; 0xc
    1288:	e0813003 	add	r3, r1, r3
    128c:	e0832002 	add	r2, r3, r2
    1290:	e3a03000 	mov	r3, #0	; 0x0
    1294:	e5c23000 	strb	r3, [r2]
    1298:	e51b3010 	ldr	r3, [fp, #-16]
    129c:	e1a02003 	mov	r2, r3
    12a0:	e24b3f46 	sub	r3, fp, #280	; 0x118
    12a4:	e0833002 	add	r3, r3, r2
    12a8:	e2832001 	add	r2, r3, #1	; 0x1
    12ac:	e24bce13 	sub	ip, fp, #304	; 0x130
    12b0:	e24bef4e 	sub	lr, fp, #312	; 0x138
    12b4:	e24b3e12 	sub	r3, fp, #288	; 0x120
    12b8:	e58d3000 	str	r3, [sp]
    12bc:	e24b3f49 	sub	r3, fp, #292	; 0x124
    12c0:	e58d3004 	str	r3, [sp, #4]
    12c4:	e24b3f4a 	sub	r3, fp, #296	; 0x128
    12c8:	e58d3008 	str	r3, [sp, #8]
    12cc:	e24b3f4b 	sub	r3, fp, #300	; 0x12c
    12d0:	e58d300c 	str	r3, [sp, #12]
    12d4:	e24b3f4d 	sub	r3, fp, #308	; 0x134
    12d8:	e58d3010 	str	r3, [sp, #16]
    12dc:	e1a00002 	mov	r0, r2
    12e0:	e59f1070 	ldr	r1, [pc, #112]	; 1358 <.text+0x1358>
    12e4:	e1a0200c 	mov	r2, ip
    12e8:	e1a0300e 	mov	r3, lr
    12ec:	ebfffffe 	bl	0 <sscanf>
    12f0:	e1a03000 	mov	r3, r0
    12f4:	e3530007 	cmp	r3, #7	; 0x7
    12f8:	1a00000f 	bne	133c <SB_GetGateway+0x17c>
    12fc:	e51b3130 	ldr	r3, [fp, #-304]
    1300:	e50b311c 	str	r3, [fp, #-284]
    1304:	e51b311c 	ldr	r3, [fp, #-284]
    1308:	e3530000 	cmp	r3, #0	; 0x0
    130c:	0a00000a 	beq	133c <SB_GetGateway+0x17c>
    1310:	e51b3018 	ldr	r3, [fp, #-24]
    1314:	e2833001 	add	r3, r3, #1	; 0x1
    1318:	e50b3018 	str	r3, [fp, #-24]
    131c:	e24b3f46 	sub	r3, fp, #280	; 0x118
    1320:	e1a00003 	mov	r0, r3
    1324:	e3a01c01 	mov	r1, #256	; 0x100
    1328:	e51b2014 	ldr	r2, [fp, #-20]
    132c:	ebfffffe 	bl	0 <fgets>
    1330:	e1a03000 	mov	r3, r0
    1334:	e3530000 	cmp	r3, #0	; 0x0
    1338:	1affffae 	bne	11f8 <SB_GetGateway+0x38>
    133c:	e51b3138 	ldr	r3, [fp, #-312]
    1340:	e1a00003 	mov	r0, r3
    1344:	e24bd00c 	sub	sp, fp, #12	; 0xc
    1348:	e89da800 	ldmia	sp, {fp, sp, pc}
    134c:	00000014 	andeq	r0, r0, r4, lsl r0
    1350:	00000024 	andeq	r0, r0, r4, lsr #32
    1354:	fffffef4 	undefined instruction 0xfffffef4
    1358:	00000028 	andeq	r0, r0, r8, lsr #32
